
kernel.out:     file format elf32-i386


Disassembly of section .text:

00100000 <_start>:
  100000:	66 b8 10 00          	mov    $0x10,%ax
  100004:	8e d0                	mov    %eax,%ss
  100006:	bc a0 c4 11 00       	mov    $0x11c4a0,%esp
  10000b:	81 c4 00 10 00 00    	add    $0x1000,%esp
  100011:	e8 0e 03 00 00       	call   100324 <main>

00100016 <sti>:
  100016:	55                   	push   %ebp
  100017:	89 e5                	mov    %esp,%ebp
  100019:	fb                   	sti    
  10001a:	90                   	nop
  10001b:	5d                   	pop    %ebp
  10001c:	c3                   	ret    

0010001d <inb>:
  10001d:	55                   	push   %ebp
  10001e:	89 e5                	mov    %esp,%ebp
  100020:	83 ec 14             	sub    $0x14,%esp
  100023:	8b 45 08             	mov    0x8(%ebp),%eax
  100026:	66 89 45 ec          	mov    %ax,-0x14(%ebp)
  10002a:	8b 45 ec             	mov    -0x14(%ebp),%eax
  10002d:	89 c2                	mov    %eax,%edx
  10002f:	ec                   	in     (%dx),%al
  100030:	88 45 ff             	mov    %al,-0x1(%ebp)
  100033:	8a 45 ff             	mov    -0x1(%ebp),%al
  100036:	c9                   	leave  
  100037:	c3                   	ret    

00100038 <inw>:
  100038:	55                   	push   %ebp
  100039:	89 e5                	mov    %esp,%ebp
  10003b:	83 ec 14             	sub    $0x14,%esp
  10003e:	8b 45 08             	mov    0x8(%ebp),%eax
  100041:	66 89 45 ec          	mov    %ax,-0x14(%ebp)
  100045:	8b 45 ec             	mov    -0x14(%ebp),%eax
  100048:	89 c2                	mov    %eax,%edx
  10004a:	66 ed                	in     (%dx),%ax
  10004c:	66 89 45 fe          	mov    %ax,-0x2(%ebp)
  100050:	66 8b 45 fe          	mov    -0x2(%ebp),%ax
  100054:	c9                   	leave  
  100055:	c3                   	ret    

00100056 <outb>:
  100056:	55                   	push   %ebp
  100057:	89 e5                	mov    %esp,%ebp
  100059:	83 ec 08             	sub    $0x8,%esp
  10005c:	8b 45 08             	mov    0x8(%ebp),%eax
  10005f:	8b 55 0c             	mov    0xc(%ebp),%edx
  100062:	66 89 45 fc          	mov    %ax,-0x4(%ebp)
  100066:	88 d0                	mov    %dl,%al
  100068:	88 45 f8             	mov    %al,-0x8(%ebp)
  10006b:	8b 55 fc             	mov    -0x4(%ebp),%edx
  10006e:	8a 45 f8             	mov    -0x8(%ebp),%al
  100071:	ee                   	out    %al,(%dx)
  100072:	90                   	nop
  100073:	c9                   	leave  
  100074:	c3                   	ret    

00100075 <outw>:
  100075:	55                   	push   %ebp
  100076:	89 e5                	mov    %esp,%ebp
  100078:	83 ec 08             	sub    $0x8,%esp
  10007b:	8b 55 08             	mov    0x8(%ebp),%edx
  10007e:	8b 45 0c             	mov    0xc(%ebp),%eax
  100081:	66 89 55 fc          	mov    %dx,-0x4(%ebp)
  100085:	66 89 45 f8          	mov    %ax,-0x8(%ebp)
  100089:	8b 55 fc             	mov    -0x4(%ebp),%edx
  10008c:	8b 45 f8             	mov    -0x8(%ebp),%eax
  10008f:	66 ef                	out    %ax,(%dx)
  100091:	90                   	nop
  100092:	c9                   	leave  
  100093:	c3                   	ret    

00100094 <lgdt>:
  100094:	55                   	push   %ebp
  100095:	89 e5                	mov    %esp,%ebp
  100097:	83 ec 14             	sub    $0x14,%esp
  10009a:	8b 45 0c             	mov    0xc(%ebp),%eax
  10009d:	66 89 45 ec          	mov    %ax,-0x14(%ebp)
  1000a1:	8b 45 08             	mov    0x8(%ebp),%eax
  1000a4:	89 45 fc             	mov    %eax,-0x4(%ebp)
  1000a7:	8b 45 ec             	mov    -0x14(%ebp),%eax
  1000aa:	48                   	dec    %eax
  1000ab:	66 89 45 fa          	mov    %ax,-0x6(%ebp)
  1000af:	0f 01 55 fa          	lgdtl  -0x6(%ebp)
  1000b3:	90                   	nop
  1000b4:	c9                   	leave  
  1000b5:	c3                   	ret    

001000b6 <read_disk>:
  1000b6:	55                   	push   %ebp
  1000b7:	89 e5                	mov    %esp,%ebp
  1000b9:	53                   	push   %ebx
  1000ba:	83 ec 10             	sub    $0x10,%esp
  1000bd:	68 e0 00 00 00       	push   $0xe0
  1000c2:	68 f6 01 00 00       	push   $0x1f6
  1000c7:	e8 8a ff ff ff       	call   100056 <outb>
  1000cc:	83 c4 08             	add    $0x8,%esp
  1000cf:	8b 45 0c             	mov    0xc(%ebp),%eax
  1000d2:	c1 e8 08             	shr    $0x8,%eax
  1000d5:	0f b6 c0             	movzbl %al,%eax
  1000d8:	50                   	push   %eax
  1000d9:	68 f2 01 00 00       	push   $0x1f2
  1000de:	e8 73 ff ff ff       	call   100056 <outb>
  1000e3:	83 c4 08             	add    $0x8,%esp
  1000e6:	8b 45 08             	mov    0x8(%ebp),%eax
  1000e9:	c1 e8 18             	shr    $0x18,%eax
  1000ec:	0f b6 c0             	movzbl %al,%eax
  1000ef:	50                   	push   %eax
  1000f0:	68 f3 01 00 00       	push   $0x1f3
  1000f5:	e8 5c ff ff ff       	call   100056 <outb>
  1000fa:	83 c4 08             	add    $0x8,%esp
  1000fd:	6a 00                	push   $0x0
  1000ff:	68 f4 01 00 00       	push   $0x1f4
  100104:	e8 4d ff ff ff       	call   100056 <outb>
  100109:	83 c4 08             	add    $0x8,%esp
  10010c:	6a 00                	push   $0x0
  10010e:	68 f5 01 00 00       	push   $0x1f5
  100113:	e8 3e ff ff ff       	call   100056 <outb>
  100118:	83 c4 08             	add    $0x8,%esp
  10011b:	8b 45 0c             	mov    0xc(%ebp),%eax
  10011e:	0f b6 c0             	movzbl %al,%eax
  100121:	50                   	push   %eax
  100122:	68 f2 01 00 00       	push   $0x1f2
  100127:	e8 2a ff ff ff       	call   100056 <outb>
  10012c:	83 c4 08             	add    $0x8,%esp
  10012f:	8b 45 08             	mov    0x8(%ebp),%eax
  100132:	0f b6 c0             	movzbl %al,%eax
  100135:	50                   	push   %eax
  100136:	68 f3 01 00 00       	push   $0x1f3
  10013b:	e8 16 ff ff ff       	call   100056 <outb>
  100140:	83 c4 08             	add    $0x8,%esp
  100143:	8b 45 08             	mov    0x8(%ebp),%eax
  100146:	c1 e8 08             	shr    $0x8,%eax
  100149:	0f b6 c0             	movzbl %al,%eax
  10014c:	50                   	push   %eax
  10014d:	68 f4 01 00 00       	push   $0x1f4
  100152:	e8 ff fe ff ff       	call   100056 <outb>
  100157:	83 c4 08             	add    $0x8,%esp
  10015a:	8b 45 08             	mov    0x8(%ebp),%eax
  10015d:	c1 e8 10             	shr    $0x10,%eax
  100160:	0f b6 c0             	movzbl %al,%eax
  100163:	50                   	push   %eax
  100164:	68 f5 01 00 00       	push   $0x1f5
  100169:	e8 e8 fe ff ff       	call   100056 <outb>
  10016e:	83 c4 08             	add    $0x8,%esp
  100171:	6a 24                	push   $0x24
  100173:	68 f7 01 00 00       	push   $0x1f7
  100178:	e8 d9 fe ff ff       	call   100056 <outb>
  10017d:	83 c4 08             	add    $0x8,%esp
  100180:	8b 45 10             	mov    0x10(%ebp),%eax
  100183:	89 45 f8             	mov    %eax,-0x8(%ebp)
  100186:	eb 49                	jmp    1001d1 <read_disk+0x11b>
  100188:	90                   	nop
  100189:	68 f7 01 00 00       	push   $0x1f7
  10018e:	e8 8a fe ff ff       	call   10001d <inb>
  100193:	83 c4 04             	add    $0x4,%esp
  100196:	0f b6 c0             	movzbl %al,%eax
  100199:	25 88 00 00 00       	and    $0x88,%eax
  10019e:	83 f8 08             	cmp    $0x8,%eax
  1001a1:	75 e6                	jne    100189 <read_disk+0xd3>
  1001a3:	c7 45 f4 00 00 00 00 	movl   $0x0,-0xc(%ebp)
  1001aa:	eb 1c                	jmp    1001c8 <read_disk+0x112>
  1001ac:	8b 5d f8             	mov    -0x8(%ebp),%ebx
  1001af:	8d 43 02             	lea    0x2(%ebx),%eax
  1001b2:	89 45 f8             	mov    %eax,-0x8(%ebp)
  1001b5:	68 f0 01 00 00       	push   $0x1f0
  1001ba:	e8 79 fe ff ff       	call   100038 <inw>
  1001bf:	83 c4 04             	add    $0x4,%esp
  1001c2:	66 89 03             	mov    %ax,(%ebx)
  1001c5:	ff 45 f4             	incl   -0xc(%ebp)
  1001c8:	81 7d f4 ff 00 00 00 	cmpl   $0xff,-0xc(%ebp)
  1001cf:	7e db                	jle    1001ac <read_disk+0xf6>
  1001d1:	8b 45 0c             	mov    0xc(%ebp),%eax
  1001d4:	8d 50 ff             	lea    -0x1(%eax),%edx
  1001d7:	89 55 0c             	mov    %edx,0xc(%ebp)
  1001da:	85 c0                	test   %eax,%eax
  1001dc:	75 aa                	jne    100188 <read_disk+0xd2>
  1001de:	90                   	nop
  1001df:	8b 5d fc             	mov    -0x4(%ebp),%ebx
  1001e2:	c9                   	leave  
  1001e3:	c3                   	ret    

001001e4 <write_disk>:
  1001e4:	55                   	push   %ebp
  1001e5:	89 e5                	mov    %esp,%ebp
  1001e7:	83 ec 10             	sub    $0x10,%esp
  1001ea:	68 e0 00 00 00       	push   $0xe0
  1001ef:	68 f6 01 00 00       	push   $0x1f6
  1001f4:	e8 5d fe ff ff       	call   100056 <outb>
  1001f9:	83 c4 08             	add    $0x8,%esp
  1001fc:	8b 45 0c             	mov    0xc(%ebp),%eax
  1001ff:	c1 e8 08             	shr    $0x8,%eax
  100202:	0f b6 c0             	movzbl %al,%eax
  100205:	50                   	push   %eax
  100206:	68 f2 01 00 00       	push   $0x1f2
  10020b:	e8 46 fe ff ff       	call   100056 <outb>
  100210:	83 c4 08             	add    $0x8,%esp
  100213:	8b 45 08             	mov    0x8(%ebp),%eax
  100216:	c1 e8 18             	shr    $0x18,%eax
  100219:	0f b6 c0             	movzbl %al,%eax
  10021c:	50                   	push   %eax
  10021d:	68 f3 01 00 00       	push   $0x1f3
  100222:	e8 2f fe ff ff       	call   100056 <outb>
  100227:	83 c4 08             	add    $0x8,%esp
  10022a:	6a 00                	push   $0x0
  10022c:	68 f4 01 00 00       	push   $0x1f4
  100231:	e8 20 fe ff ff       	call   100056 <outb>
  100236:	83 c4 08             	add    $0x8,%esp
  100239:	6a 00                	push   $0x0
  10023b:	68 f5 01 00 00       	push   $0x1f5
  100240:	e8 11 fe ff ff       	call   100056 <outb>
  100245:	83 c4 08             	add    $0x8,%esp
  100248:	8b 45 0c             	mov    0xc(%ebp),%eax
  10024b:	0f b6 c0             	movzbl %al,%eax
  10024e:	50                   	push   %eax
  10024f:	68 f2 01 00 00       	push   $0x1f2
  100254:	e8 fd fd ff ff       	call   100056 <outb>
  100259:	83 c4 08             	add    $0x8,%esp
  10025c:	8b 45 08             	mov    0x8(%ebp),%eax
  10025f:	0f b6 c0             	movzbl %al,%eax
  100262:	50                   	push   %eax
  100263:	68 f3 01 00 00       	push   $0x1f3
  100268:	e8 e9 fd ff ff       	call   100056 <outb>
  10026d:	83 c4 08             	add    $0x8,%esp
  100270:	8b 45 08             	mov    0x8(%ebp),%eax
  100273:	c1 e8 08             	shr    $0x8,%eax
  100276:	0f b6 c0             	movzbl %al,%eax
  100279:	50                   	push   %eax
  10027a:	68 f4 01 00 00       	push   $0x1f4
  10027f:	e8 d2 fd ff ff       	call   100056 <outb>
  100284:	83 c4 08             	add    $0x8,%esp
  100287:	8b 45 08             	mov    0x8(%ebp),%eax
  10028a:	c1 e8 10             	shr    $0x10,%eax
  10028d:	0f b6 c0             	movzbl %al,%eax
  100290:	50                   	push   %eax
  100291:	68 f5 01 00 00       	push   $0x1f5
  100296:	e8 bb fd ff ff       	call   100056 <outb>
  10029b:	83 c4 08             	add    $0x8,%esp
  10029e:	6a 34                	push   $0x34
  1002a0:	68 f7 01 00 00       	push   $0x1f7
  1002a5:	e8 ac fd ff ff       	call   100056 <outb>
  1002aa:	83 c4 08             	add    $0x8,%esp
  1002ad:	8b 45 10             	mov    0x10(%ebp),%eax
  1002b0:	89 45 fc             	mov    %eax,-0x4(%ebp)
  1002b3:	eb 4d                	jmp    100302 <write_disk+0x11e>
  1002b5:	90                   	nop
  1002b6:	68 f7 01 00 00       	push   $0x1f7
  1002bb:	e8 5d fd ff ff       	call   10001d <inb>
  1002c0:	83 c4 04             	add    $0x4,%esp
  1002c3:	0f b6 c0             	movzbl %al,%eax
  1002c6:	25 88 00 00 00       	and    $0x88,%eax
  1002cb:	83 f8 08             	cmp    $0x8,%eax
  1002ce:	75 e6                	jne    1002b6 <write_disk+0xd2>
  1002d0:	c7 45 f8 00 00 00 00 	movl   $0x0,-0x8(%ebp)
  1002d7:	eb 20                	jmp    1002f9 <write_disk+0x115>
  1002d9:	8b 45 fc             	mov    -0x4(%ebp),%eax
  1002dc:	8d 50 02             	lea    0x2(%eax),%edx
  1002df:	89 55 fc             	mov    %edx,-0x4(%ebp)
  1002e2:	66 8b 00             	mov    (%eax),%ax
  1002e5:	0f b7 c0             	movzwl %ax,%eax
  1002e8:	50                   	push   %eax
  1002e9:	68 f0 01 00 00       	push   $0x1f0
  1002ee:	e8 82 fd ff ff       	call   100075 <outw>
  1002f3:	83 c4 08             	add    $0x8,%esp
  1002f6:	ff 45 f8             	incl   -0x8(%ebp)
  1002f9:	81 7d f8 ff 00 00 00 	cmpl   $0xff,-0x8(%ebp)
  100300:	7e d7                	jle    1002d9 <write_disk+0xf5>
  100302:	8b 45 0c             	mov    0xc(%ebp),%eax
  100305:	8d 50 ff             	lea    -0x1(%eax),%edx
  100308:	89 55 0c             	mov    %edx,0xc(%ebp)
  10030b:	85 c0                	test   %eax,%eax
  10030d:	75 a6                	jne    1002b5 <write_disk+0xd1>
  10030f:	68 e7 00 00 00       	push   $0xe7
  100314:	68 f7 01 00 00       	push   $0x1f7
  100319:	e8 38 fd ff ff       	call   100056 <outb>
  10031e:	83 c4 08             	add    $0x8,%esp
  100321:	90                   	nop
  100322:	c9                   	leave  
  100323:	c3                   	ret    

00100324 <main>:
  100324:	8d 4c 24 04          	lea    0x4(%esp),%ecx
  100328:	83 e4 f0             	and    $0xfffffff0,%esp
  10032b:	ff 71 fc             	pushl  -0x4(%ecx)
  10032e:	55                   	push   %ebp
  10032f:	89 e5                	mov    %esp,%ebp
  100331:	51                   	push   %ecx
  100332:	83 ec 04             	sub    $0x4,%esp
  100335:	e8 6c 00 00 00       	call   1003a6 <reload_gdt>
  10033a:	e8 df 02 00 00       	call   10061e <interrupt_init>
  10033f:	e8 5c 05 00 00       	call   1008a0 <time_init>
  100344:	e8 15 08 00 00       	call   100b5e <tty_init>
  100349:	e8 0c 1d 00 00       	call   10205a <memory_init>
  10034e:	e8 cf 0e 00 00       	call   101222 <sched_init>
  100353:	e8 f0 2b 00 00       	call   102f48 <fs_init>
  100358:	e8 7f 01 00 00       	call   1004dc <fs_test>
  10035d:	83 ec 0c             	sub    $0xc,%esp
  100360:	68 a0 3e 10 00       	push   $0x103ea0
  100365:	e8 1a 28 00 00       	call   102b84 <sys_execve>
  10036a:	83 c4 10             	add    $0x10,%esp
  10036d:	e8 a4 fc ff ff       	call   100016 <sti>
  100372:	89 e0                	mov    %esp,%eax
  100374:	6a 23                	push   $0x23
  100376:	50                   	push   %eax
  100377:	9c                   	pushf  
  100378:	6a 1b                	push   $0x1b
  10037a:	68 80 03 10 00       	push   $0x100380
  10037f:	cf                   	iret   
  100380:	b8 23 00 00 00       	mov    $0x23,%eax
  100385:	8e d8                	mov    %eax,%ds
  100387:	8e c0                	mov    %eax,%es
  100389:	8e e0                	mov    %eax,%fs
  10038b:	8e e8                	mov    %eax,%gs
  10038d:	ea 00 00 00 00 38 00 	ljmp   $0x38,$0x0
  100394:	83 ec 0c             	sub    $0xc,%esp
  100397:	68 a5 3e 10 00       	push   $0x103ea5
  10039c:	e8 e0 06 00 00       	call   100a81 <printf>
  1003a1:	83 c4 10             	add    $0x10,%esp
  1003a4:	eb fe                	jmp    1003a4 <main+0x80>

001003a6 <reload_gdt>:
  1003a6:	55                   	push   %ebp
  1003a7:	89 e5                	mov    %esp,%ebp
  1003a9:	b8 00 60 10 00       	mov    $0x106000,%eax
  1003ae:	6a 00                	push   $0x0
  1003b0:	50                   	push   %eax
  1003b1:	e8 de fc ff ff       	call   100094 <lgdt>
  1003b6:	83 c4 08             	add    $0x8,%esp
  1003b9:	90                   	nop
  1003ba:	c9                   	leave  
  1003bb:	c3                   	ret    

001003bc <sell_ticket_A>:
  1003bc:	55                   	push   %ebp
  1003bd:	89 e5                	mov    %esp,%ebp
  1003bf:	83 ec 08             	sub    $0x8,%esp
  1003c2:	eb 3f                	jmp    100403 <sell_ticket_A+0x47>
  1003c4:	a1 00 60 11 00       	mov    0x116000,%eax
  1003c9:	48                   	dec    %eax
  1003ca:	a3 00 60 11 00       	mov    %eax,0x116000
  1003cf:	83 ec 0c             	sub    $0xc,%esp
  1003d2:	68 b0 3e 10 00       	push   $0x103eb0
  1003d7:	e8 a5 06 00 00       	call   100a81 <printf>
  1003dc:	83 c4 10             	add    $0x10,%esp
  1003df:	a1 00 60 11 00       	mov    0x116000,%eax
  1003e4:	83 ec 08             	sub    $0x8,%esp
  1003e7:	6a 0a                	push   $0xa
  1003e9:	50                   	push   %eax
  1003ea:	e8 57 15 00 00       	call   101946 <get_itoa>
  1003ef:	83 c4 10             	add    $0x10,%esp
  1003f2:	83 ec 0c             	sub    $0xc,%esp
  1003f5:	50                   	push   %eax
  1003f6:	e8 86 06 00 00       	call   100a81 <printf>
  1003fb:	83 c4 10             	add    $0x10,%esp
  1003fe:	e8 e3 06 00 00       	call   100ae6 <println>
  100403:	a1 00 60 11 00       	mov    0x116000,%eax
  100408:	85 c0                	test   %eax,%eax
  10040a:	7f b8                	jg     1003c4 <sell_ticket_A+0x8>
  10040c:	83 ec 0c             	sub    $0xc,%esp
  10040f:	6a 00                	push   $0x0
  100411:	e8 19 10 00 00       	call   10142f <sys_exit>
  100416:	83 c4 10             	add    $0x10,%esp
  100419:	90                   	nop
  10041a:	c9                   	leave  
  10041b:	c3                   	ret    

0010041c <sell_ticket_B>:
  10041c:	55                   	push   %ebp
  10041d:	89 e5                	mov    %esp,%ebp
  10041f:	83 ec 08             	sub    $0x8,%esp
  100422:	eb 3f                	jmp    100463 <sell_ticket_B+0x47>
  100424:	a1 00 60 11 00       	mov    0x116000,%eax
  100429:	48                   	dec    %eax
  10042a:	a3 00 60 11 00       	mov    %eax,0x116000
  10042f:	83 ec 0c             	sub    $0xc,%esp
  100432:	68 d8 3e 10 00       	push   $0x103ed8
  100437:	e8 45 06 00 00       	call   100a81 <printf>
  10043c:	83 c4 10             	add    $0x10,%esp
  10043f:	a1 00 60 11 00       	mov    0x116000,%eax
  100444:	83 ec 08             	sub    $0x8,%esp
  100447:	6a 0a                	push   $0xa
  100449:	50                   	push   %eax
  10044a:	e8 f7 14 00 00       	call   101946 <get_itoa>
  10044f:	83 c4 10             	add    $0x10,%esp
  100452:	83 ec 0c             	sub    $0xc,%esp
  100455:	50                   	push   %eax
  100456:	e8 26 06 00 00       	call   100a81 <printf>
  10045b:	83 c4 10             	add    $0x10,%esp
  10045e:	e8 83 06 00 00       	call   100ae6 <println>
  100463:	a1 00 60 11 00       	mov    0x116000,%eax
  100468:	85 c0                	test   %eax,%eax
  10046a:	7f b8                	jg     100424 <sell_ticket_B+0x8>
  10046c:	83 ec 0c             	sub    $0xc,%esp
  10046f:	6a 00                	push   $0x0
  100471:	e8 b9 0f 00 00       	call   10142f <sys_exit>
  100476:	83 c4 10             	add    $0x10,%esp
  100479:	90                   	nop
  10047a:	c9                   	leave  
  10047b:	c3                   	ret    

0010047c <sell_ticket_C>:
  10047c:	55                   	push   %ebp
  10047d:	89 e5                	mov    %esp,%ebp
  10047f:	83 ec 08             	sub    $0x8,%esp
  100482:	eb 3f                	jmp    1004c3 <sell_ticket_C+0x47>
  100484:	a1 00 60 11 00       	mov    0x116000,%eax
  100489:	48                   	dec    %eax
  10048a:	a3 00 60 11 00       	mov    %eax,0x116000
  10048f:	83 ec 0c             	sub    $0xc,%esp
  100492:	68 00 3f 10 00       	push   $0x103f00
  100497:	e8 e5 05 00 00       	call   100a81 <printf>
  10049c:	83 c4 10             	add    $0x10,%esp
  10049f:	a1 00 60 11 00       	mov    0x116000,%eax
  1004a4:	83 ec 08             	sub    $0x8,%esp
  1004a7:	6a 0a                	push   $0xa
  1004a9:	50                   	push   %eax
  1004aa:	e8 97 14 00 00       	call   101946 <get_itoa>
  1004af:	83 c4 10             	add    $0x10,%esp
  1004b2:	83 ec 0c             	sub    $0xc,%esp
  1004b5:	50                   	push   %eax
  1004b6:	e8 c6 05 00 00       	call   100a81 <printf>
  1004bb:	83 c4 10             	add    $0x10,%esp
  1004be:	e8 23 06 00 00       	call   100ae6 <println>
  1004c3:	a1 00 60 11 00       	mov    0x116000,%eax
  1004c8:	85 c0                	test   %eax,%eax
  1004ca:	7f b8                	jg     100484 <sell_ticket_C+0x8>
  1004cc:	83 ec 0c             	sub    $0xc,%esp
  1004cf:	6a 00                	push   $0x0
  1004d1:	e8 59 0f 00 00       	call   10142f <sys_exit>
  1004d6:	83 c4 10             	add    $0x10,%esp
  1004d9:	90                   	nop
  1004da:	c9                   	leave  
  1004db:	c3                   	ret    

001004dc <fs_test>:
  1004dc:	55                   	push   %ebp
  1004dd:	89 e5                	mov    %esp,%ebp
  1004df:	81 ec 08 02 00 00    	sub    $0x208,%esp
  1004e5:	8d 85 f8 fd ff ff    	lea    -0x208(%ebp),%eax
  1004eb:	83 ec 08             	sub    $0x8,%esp
  1004ee:	68 27 3f 10 00       	push   $0x103f27
  1004f3:	50                   	push   %eax
  1004f4:	e8 74 11 00 00       	call   10166d <strcpy>
  1004f9:	83 c4 10             	add    $0x10,%esp
  1004fc:	8d 85 f8 fd ff ff    	lea    -0x208(%ebp),%eax
  100502:	c7 40 4c fc 01 00 00 	movl   $0x1fc,0x4c(%eax)
  100509:	8d 85 f8 fd ff ff    	lea    -0x208(%ebp),%eax
  10050f:	c7 40 40 02 04 00 00 	movl   $0x402,0x40(%eax)
  100516:	8d 85 f8 fd ff ff    	lea    -0x208(%ebp),%eax
  10051c:	c7 40 44 02 04 00 00 	movl   $0x402,0x44(%eax)
  100523:	8d 85 f8 fd ff ff    	lea    -0x208(%ebp),%eax
  100529:	c7 40 48 01 00 00 00 	movl   $0x1,0x48(%eax)
  100530:	8d 85 f8 fd ff ff    	lea    -0x208(%ebp),%eax
  100536:	c7 40 50 00 00 00 00 	movl   $0x0,0x50(%eax)
  10053d:	c7 45 f4 ff ff ff ff 	movl   $0xffffffff,-0xc(%ebp)
  100544:	83 ec 04             	sub    $0x4,%esp
  100547:	8d 85 f8 fd ff ff    	lea    -0x208(%ebp),%eax
  10054d:	50                   	push   %eax
  10054e:	6a 01                	push   $0x1
  100550:	68 01 04 00 00       	push   $0x401
  100555:	e8 8a fc ff ff       	call   1001e4 <write_disk>
  10055a:	83 c4 10             	add    $0x10,%esp
  10055d:	83 ec 04             	sub    $0x4,%esp
  100560:	6a 01                	push   $0x1
  100562:	68 02 04 00 00       	push   $0x402
  100567:	68 20 d0 23 00       	push   $0x23d020
  10056c:	e8 8a 17 00 00       	call   101cfb <bit_free>
  100571:	83 c4 10             	add    $0x10,%esp
  100574:	90                   	nop
  100575:	c9                   	leave  
  100576:	c3                   	ret    

00100577 <inb>:
  100577:	55                   	push   %ebp
  100578:	89 e5                	mov    %esp,%ebp
  10057a:	83 ec 14             	sub    $0x14,%esp
  10057d:	8b 45 08             	mov    0x8(%ebp),%eax
  100580:	66 89 45 ec          	mov    %ax,-0x14(%ebp)
  100584:	8b 45 ec             	mov    -0x14(%ebp),%eax
  100587:	89 c2                	mov    %eax,%edx
  100589:	ec                   	in     (%dx),%al
  10058a:	88 45 ff             	mov    %al,-0x1(%ebp)
  10058d:	8a 45 ff             	mov    -0x1(%ebp),%al
  100590:	c9                   	leave  
  100591:	c3                   	ret    

00100592 <outb>:
  100592:	55                   	push   %ebp
  100593:	89 e5                	mov    %esp,%ebp
  100595:	83 ec 08             	sub    $0x8,%esp
  100598:	8b 45 08             	mov    0x8(%ebp),%eax
  10059b:	8b 55 0c             	mov    0xc(%ebp),%edx
  10059e:	66 89 45 fc          	mov    %ax,-0x4(%ebp)
  1005a2:	88 d0                	mov    %dl,%al
  1005a4:	88 45 f8             	mov    %al,-0x8(%ebp)
  1005a7:	8b 55 fc             	mov    -0x4(%ebp),%edx
  1005aa:	8a 45 f8             	mov    -0x8(%ebp),%al
  1005ad:	ee                   	out    %al,(%dx)
  1005ae:	90                   	nop
  1005af:	c9                   	leave  
  1005b0:	c3                   	ret    

001005b1 <lidt>:
  1005b1:	55                   	push   %ebp
  1005b2:	89 e5                	mov    %esp,%ebp
  1005b4:	83 ec 14             	sub    $0x14,%esp
  1005b7:	8b 45 0c             	mov    0xc(%ebp),%eax
  1005ba:	66 89 45 ec          	mov    %ax,-0x14(%ebp)
  1005be:	8b 45 08             	mov    0x8(%ebp),%eax
  1005c1:	89 45 fc             	mov    %eax,-0x4(%ebp)
  1005c4:	8b 45 ec             	mov    -0x14(%ebp),%eax
  1005c7:	48                   	dec    %eax
  1005c8:	66 89 45 fa          	mov    %ax,-0x6(%ebp)
  1005cc:	0f 01 5d fa          	lidtl  -0x6(%ebp)
  1005d0:	90                   	nop
  1005d1:	c9                   	leave  
  1005d2:	c3                   	ret    

001005d3 <make_idt_desc>:
  1005d3:	55                   	push   %ebp
  1005d4:	89 e5                	mov    %esp,%ebp
  1005d6:	83 ec 14             	sub    $0x14,%esp
  1005d9:	8b 45 0c             	mov    0xc(%ebp),%eax
  1005dc:	66 89 45 ec          	mov    %ax,-0x14(%ebp)
  1005e0:	8b 45 10             	mov    0x10(%ebp),%eax
  1005e3:	c1 e8 10             	shr    $0x10,%eax
  1005e6:	66 89 45 fe          	mov    %ax,-0x2(%ebp)
  1005ea:	8b 45 10             	mov    0x10(%ebp),%eax
  1005ed:	66 89 45 fc          	mov    %ax,-0x4(%ebp)
  1005f1:	0f b7 45 fe          	movzwl -0x2(%ebp),%eax
  1005f5:	c1 e0 10             	shl    $0x10,%eax
  1005f8:	05 00 8e 00 00       	add    $0x8e00,%eax
  1005fd:	89 c2                	mov    %eax,%edx
  1005ff:	8b 45 08             	mov    0x8(%ebp),%eax
  100602:	89 50 04             	mov    %edx,0x4(%eax)
  100605:	0f b7 45 ec          	movzwl -0x14(%ebp),%eax
  100609:	c1 e0 10             	shl    $0x10,%eax
  10060c:	89 c2                	mov    %eax,%edx
  10060e:	0f b7 45 fc          	movzwl -0x4(%ebp),%eax
  100612:	01 d0                	add    %edx,%eax
  100614:	89 c2                	mov    %eax,%edx
  100616:	8b 45 08             	mov    0x8(%ebp),%eax
  100619:	89 10                	mov    %edx,(%eax)
  10061b:	90                   	nop
  10061c:	c9                   	leave  
  10061d:	c3                   	ret    

0010061e <interrupt_init>:
  10061e:	55                   	push   %ebp
  10061f:	89 e5                	mov    %esp,%ebp
  100621:	83 ec 18             	sub    $0x18,%esp
  100624:	b8 a0 d4 11 00       	mov    $0x11d4a0,%eax
  100629:	68 00 08 00 00       	push   $0x800
  10062e:	50                   	push   %eax
  10062f:	e8 7d ff ff ff       	call   1005b1 <lidt>
  100634:	83 c4 08             	add    $0x8,%esp
  100637:	e8 93 00 00 00       	call   1006cf <pic_init>
  10063c:	c7 45 f4 00 00 00 00 	movl   $0x0,-0xc(%ebp)
  100643:	eb 1b                	jmp    100660 <interrupt_init+0x42>
  100645:	ba 80 08 10 00       	mov    $0x100880,%edx
  10064a:	8b 45 f4             	mov    -0xc(%ebp),%eax
  10064d:	0f b6 c0             	movzbl %al,%eax
  100650:	83 ec 08             	sub    $0x8,%esp
  100653:	52                   	push   %edx
  100654:	50                   	push   %eax
  100655:	e8 12 00 00 00       	call   10066c <set_idt>
  10065a:	83 c4 10             	add    $0x10,%esp
  10065d:	ff 45 f4             	incl   -0xc(%ebp)
  100660:	81 7d f4 ff 00 00 00 	cmpl   $0xff,-0xc(%ebp)
  100667:	7e dc                	jle    100645 <interrupt_init+0x27>
  100669:	90                   	nop
  10066a:	c9                   	leave  
  10066b:	c3                   	ret    

0010066c <set_idt>:
  10066c:	55                   	push   %ebp
  10066d:	89 e5                	mov    %esp,%ebp
  10066f:	83 ec 14             	sub    $0x14,%esp
  100672:	8b 45 08             	mov    0x8(%ebp),%eax
  100675:	88 45 ec             	mov    %al,-0x14(%ebp)
  100678:	ff 75 0c             	pushl  0xc(%ebp)
  10067b:	6a 08                	push   $0x8
  10067d:	8d 45 f8             	lea    -0x8(%ebp),%eax
  100680:	50                   	push   %eax
  100681:	e8 4d ff ff ff       	call   1005d3 <make_idt_desc>
  100686:	83 c4 0c             	add    $0xc,%esp
  100689:	0f b6 4d ec          	movzbl -0x14(%ebp),%ecx
  10068d:	8b 45 f8             	mov    -0x8(%ebp),%eax
  100690:	8b 55 fc             	mov    -0x4(%ebp),%edx
  100693:	89 04 cd a0 d4 11 00 	mov    %eax,0x11d4a0(,%ecx,8)
  10069a:	89 14 cd a4 d4 11 00 	mov    %edx,0x11d4a4(,%ecx,8)
  1006a1:	90                   	nop
  1006a2:	c9                   	leave  
  1006a3:	c3                   	ret    

001006a4 <pic_send_eoi>:
  1006a4:	55                   	push   %ebp
  1006a5:	89 e5                	mov    %esp,%ebp
  1006a7:	83 6d 08 20          	subl   $0x20,0x8(%ebp)
  1006ab:	83 7d 08 07          	cmpl   $0x7,0x8(%ebp)
  1006af:	7e 0f                	jle    1006c0 <pic_send_eoi+0x1c>
  1006b1:	6a 20                	push   $0x20
  1006b3:	68 a0 00 00 00       	push   $0xa0
  1006b8:	e8 d5 fe ff ff       	call   100592 <outb>
  1006bd:	83 c4 08             	add    $0x8,%esp
  1006c0:	6a 20                	push   $0x20
  1006c2:	6a 20                	push   $0x20
  1006c4:	e8 c9 fe ff ff       	call   100592 <outb>
  1006c9:	83 c4 08             	add    $0x8,%esp
  1006cc:	90                   	nop
  1006cd:	c9                   	leave  
  1006ce:	c3                   	ret    

001006cf <pic_init>:
  1006cf:	55                   	push   %ebp
  1006d0:	89 e5                	mov    %esp,%ebp
  1006d2:	6a 11                	push   $0x11
  1006d4:	6a 20                	push   $0x20
  1006d6:	e8 b7 fe ff ff       	call   100592 <outb>
  1006db:	83 c4 08             	add    $0x8,%esp
  1006de:	6a 20                	push   $0x20
  1006e0:	6a 21                	push   $0x21
  1006e2:	e8 ab fe ff ff       	call   100592 <outb>
  1006e7:	83 c4 08             	add    $0x8,%esp
  1006ea:	6a 04                	push   $0x4
  1006ec:	6a 21                	push   $0x21
  1006ee:	e8 9f fe ff ff       	call   100592 <outb>
  1006f3:	83 c4 08             	add    $0x8,%esp
  1006f6:	6a 01                	push   $0x1
  1006f8:	6a 21                	push   $0x21
  1006fa:	e8 93 fe ff ff       	call   100592 <outb>
  1006ff:	83 c4 08             	add    $0x8,%esp
  100702:	6a 11                	push   $0x11
  100704:	68 a0 00 00 00       	push   $0xa0
  100709:	e8 84 fe ff ff       	call   100592 <outb>
  10070e:	83 c4 08             	add    $0x8,%esp
  100711:	6a 28                	push   $0x28
  100713:	68 a1 00 00 00       	push   $0xa1
  100718:	e8 75 fe ff ff       	call   100592 <outb>
  10071d:	83 c4 08             	add    $0x8,%esp
  100720:	6a 02                	push   $0x2
  100722:	68 a1 00 00 00       	push   $0xa1
  100727:	e8 66 fe ff ff       	call   100592 <outb>
  10072c:	83 c4 08             	add    $0x8,%esp
  10072f:	6a 01                	push   $0x1
  100731:	68 a1 00 00 00       	push   $0xa1
  100736:	e8 57 fe ff ff       	call   100592 <outb>
  10073b:	83 c4 08             	add    $0x8,%esp
  10073e:	68 fb 00 00 00       	push   $0xfb
  100743:	6a 21                	push   $0x21
  100745:	e8 48 fe ff ff       	call   100592 <outb>
  10074a:	83 c4 08             	add    $0x8,%esp
  10074d:	68 ff 00 00 00       	push   $0xff
  100752:	68 a1 00 00 00       	push   $0xa1
  100757:	e8 36 fe ff ff       	call   100592 <outb>
  10075c:	83 c4 08             	add    $0x8,%esp
  10075f:	90                   	nop
  100760:	c9                   	leave  
  100761:	c3                   	ret    

00100762 <interrupt_enable>:
  100762:	55                   	push   %ebp
  100763:	89 e5                	mov    %esp,%ebp
  100765:	53                   	push   %ebx
  100766:	83 ec 10             	sub    $0x10,%esp
  100769:	83 7d 08 1f          	cmpl   $0x1f,0x8(%ebp)
  10076d:	7e 78                	jle    1007e7 <interrupt_enable+0x85>
  10076f:	83 6d 08 20          	subl   $0x20,0x8(%ebp)
  100773:	83 7d 08 07          	cmpl   $0x7,0x8(%ebp)
  100777:	7f 32                	jg     1007ab <interrupt_enable+0x49>
  100779:	6a 21                	push   $0x21
  10077b:	e8 f7 fd ff ff       	call   100577 <inb>
  100780:	83 c4 04             	add    $0x4,%esp
  100783:	88 c2                	mov    %al,%dl
  100785:	8b 45 08             	mov    0x8(%ebp),%eax
  100788:	bb 01 00 00 00       	mov    $0x1,%ebx
  10078d:	88 c1                	mov    %al,%cl
  10078f:	d3 e3                	shl    %cl,%ebx
  100791:	89 d8                	mov    %ebx,%eax
  100793:	f7 d0                	not    %eax
  100795:	21 d0                	and    %edx,%eax
  100797:	88 45 fa             	mov    %al,-0x6(%ebp)
  10079a:	0f b6 45 fa          	movzbl -0x6(%ebp),%eax
  10079e:	50                   	push   %eax
  10079f:	6a 21                	push   $0x21
  1007a1:	e8 ec fd ff ff       	call   100592 <outb>
  1007a6:	83 c4 08             	add    $0x8,%esp
  1007a9:	eb 3d                	jmp    1007e8 <interrupt_enable+0x86>
  1007ab:	83 6d 08 08          	subl   $0x8,0x8(%ebp)
  1007af:	68 a1 00 00 00       	push   $0xa1
  1007b4:	e8 be fd ff ff       	call   100577 <inb>
  1007b9:	83 c4 04             	add    $0x4,%esp
  1007bc:	88 c2                	mov    %al,%dl
  1007be:	8b 45 08             	mov    0x8(%ebp),%eax
  1007c1:	bb 01 00 00 00       	mov    $0x1,%ebx
  1007c6:	88 c1                	mov    %al,%cl
  1007c8:	d3 e3                	shl    %cl,%ebx
  1007ca:	89 d8                	mov    %ebx,%eax
  1007cc:	f7 d0                	not    %eax
  1007ce:	21 d0                	and    %edx,%eax
  1007d0:	88 45 fb             	mov    %al,-0x5(%ebp)
  1007d3:	0f b6 45 fb          	movzbl -0x5(%ebp),%eax
  1007d7:	50                   	push   %eax
  1007d8:	68 a1 00 00 00       	push   $0xa1
  1007dd:	e8 b0 fd ff ff       	call   100592 <outb>
  1007e2:	83 c4 08             	add    $0x8,%esp
  1007e5:	eb 01                	jmp    1007e8 <interrupt_enable+0x86>
  1007e7:	90                   	nop
  1007e8:	8b 5d fc             	mov    -0x4(%ebp),%ebx
  1007eb:	c9                   	leave  
  1007ec:	c3                   	ret    

001007ed <interrupt_disable>:
  1007ed:	55                   	push   %ebp
  1007ee:	89 e5                	mov    %esp,%ebp
  1007f0:	53                   	push   %ebx
  1007f1:	83 ec 10             	sub    $0x10,%esp
  1007f4:	83 7d 08 1f          	cmpl   $0x1f,0x8(%ebp)
  1007f8:	7e 74                	jle    10086e <interrupt_disable+0x81>
  1007fa:	83 6d 08 20          	subl   $0x20,0x8(%ebp)
  1007fe:	83 7d 08 07          	cmpl   $0x7,0x8(%ebp)
  100802:	7f 30                	jg     100834 <interrupt_disable+0x47>
  100804:	6a 21                	push   $0x21
  100806:	e8 6c fd ff ff       	call   100577 <inb>
  10080b:	83 c4 04             	add    $0x4,%esp
  10080e:	88 c2                	mov    %al,%dl
  100810:	8b 45 08             	mov    0x8(%ebp),%eax
  100813:	bb 01 00 00 00       	mov    $0x1,%ebx
  100818:	88 c1                	mov    %al,%cl
  10081a:	d3 e3                	shl    %cl,%ebx
  10081c:	89 d8                	mov    %ebx,%eax
  10081e:	09 d0                	or     %edx,%eax
  100820:	88 45 fa             	mov    %al,-0x6(%ebp)
  100823:	0f b6 45 fa          	movzbl -0x6(%ebp),%eax
  100827:	50                   	push   %eax
  100828:	6a 21                	push   $0x21
  10082a:	e8 63 fd ff ff       	call   100592 <outb>
  10082f:	83 c4 08             	add    $0x8,%esp
  100832:	eb 3b                	jmp    10086f <interrupt_disable+0x82>
  100834:	83 6d 08 08          	subl   $0x8,0x8(%ebp)
  100838:	68 a1 00 00 00       	push   $0xa1
  10083d:	e8 35 fd ff ff       	call   100577 <inb>
  100842:	83 c4 04             	add    $0x4,%esp
  100845:	88 c2                	mov    %al,%dl
  100847:	8b 45 08             	mov    0x8(%ebp),%eax
  10084a:	bb 01 00 00 00       	mov    $0x1,%ebx
  10084f:	88 c1                	mov    %al,%cl
  100851:	d3 e3                	shl    %cl,%ebx
  100853:	89 d8                	mov    %ebx,%eax
  100855:	09 d0                	or     %edx,%eax
  100857:	88 45 fb             	mov    %al,-0x5(%ebp)
  10085a:	0f b6 45 fb          	movzbl -0x5(%ebp),%eax
  10085e:	50                   	push   %eax
  10085f:	68 a1 00 00 00       	push   $0xa1
  100864:	e8 29 fd ff ff       	call   100592 <outb>
  100869:	83 c4 08             	add    $0x8,%esp
  10086c:	eb 01                	jmp    10086f <interrupt_disable+0x82>
  10086e:	90                   	nop
  10086f:	8b 5d fc             	mov    -0x4(%ebp),%ebx
  100872:	c9                   	leave  
  100873:	c3                   	ret    
  100874:	66 90                	xchg   %ax,%ax
  100876:	66 90                	xchg   %ax,%ax
  100878:	66 90                	xchg   %ax,%ax
  10087a:	66 90                	xchg   %ax,%ax
  10087c:	66 90                	xchg   %ax,%ax
  10087e:	66 90                	xchg   %ax,%ax

00100880 <ignore_int>:
  100880:	cf                   	iret   

00100881 <outb>:
  100881:	55                   	push   %ebp
  100882:	89 e5                	mov    %esp,%ebp
  100884:	83 ec 08             	sub    $0x8,%esp
  100887:	8b 45 08             	mov    0x8(%ebp),%eax
  10088a:	8b 55 0c             	mov    0xc(%ebp),%edx
  10088d:	66 89 45 fc          	mov    %ax,-0x4(%ebp)
  100891:	88 d0                	mov    %dl,%al
  100893:	88 45 f8             	mov    %al,-0x8(%ebp)
  100896:	8b 55 fc             	mov    -0x4(%ebp),%edx
  100899:	8a 45 f8             	mov    -0x8(%ebp),%al
  10089c:	ee                   	out    %al,(%dx)
  10089d:	90                   	nop
  10089e:	c9                   	leave  
  10089f:	c3                   	ret    

001008a0 <time_init>:
  1008a0:	55                   	push   %ebp
  1008a1:	89 e5                	mov    %esp,%ebp
  1008a3:	83 ec 08             	sub    $0x8,%esp
  1008a6:	83 ec 08             	sub    $0x8,%esp
  1008a9:	6a 64                	push   $0x64
  1008ab:	6a 20                	push   $0x20
  1008ad:	e8 19 00 00 00       	call   1008cb <CMOS_RTC_hardware_init>
  1008b2:	83 c4 10             	add    $0x10,%esp
  1008b5:	b8 e0 09 10 00       	mov    $0x1009e0,%eax
  1008ba:	83 ec 08             	sub    $0x8,%esp
  1008bd:	50                   	push   %eax
  1008be:	6a 20                	push   $0x20
  1008c0:	e8 a7 fd ff ff       	call   10066c <set_idt>
  1008c5:	83 c4 10             	add    $0x10,%esp
  1008c8:	90                   	nop
  1008c9:	c9                   	leave  
  1008ca:	c3                   	ret    

001008cb <CMOS_RTC_hardware_init>:
  1008cb:	55                   	push   %ebp
  1008cc:	89 e5                	mov    %esp,%ebp
  1008ce:	83 ec 14             	sub    $0x14,%esp
  1008d1:	8b 45 08             	mov    0x8(%ebp),%eax
  1008d4:	88 45 ec             	mov    %al,-0x14(%ebp)
  1008d7:	6a 11                	push   $0x11
  1008d9:	6a 20                	push   $0x20
  1008db:	e8 a1 ff ff ff       	call   100881 <outb>
  1008e0:	83 c4 08             	add    $0x8,%esp
  1008e3:	6a 11                	push   $0x11
  1008e5:	68 a0 00 00 00       	push   $0xa0
  1008ea:	e8 92 ff ff ff       	call   100881 <outb>
  1008ef:	83 c4 08             	add    $0x8,%esp
  1008f2:	6a 20                	push   $0x20
  1008f4:	6a 21                	push   $0x21
  1008f6:	e8 86 ff ff ff       	call   100881 <outb>
  1008fb:	83 c4 08             	add    $0x8,%esp
  1008fe:	6a 28                	push   $0x28
  100900:	68 a1 00 00 00       	push   $0xa1
  100905:	e8 77 ff ff ff       	call   100881 <outb>
  10090a:	83 c4 08             	add    $0x8,%esp
  10090d:	6a 04                	push   $0x4
  10090f:	6a 21                	push   $0x21
  100911:	e8 6b ff ff ff       	call   100881 <outb>
  100916:	83 c4 08             	add    $0x8,%esp
  100919:	6a 02                	push   $0x2
  10091b:	68 a1 00 00 00       	push   $0xa1
  100920:	e8 5c ff ff ff       	call   100881 <outb>
  100925:	83 c4 08             	add    $0x8,%esp
  100928:	6a 01                	push   $0x1
  10092a:	6a 21                	push   $0x21
  10092c:	e8 50 ff ff ff       	call   100881 <outb>
  100931:	83 c4 08             	add    $0x8,%esp
  100934:	6a 01                	push   $0x1
  100936:	68 a1 00 00 00       	push   $0xa1
  10093b:	e8 41 ff ff ff       	call   100881 <outb>
  100940:	83 c4 08             	add    $0x8,%esp
  100943:	68 fe 00 00 00       	push   $0xfe
  100948:	6a 21                	push   $0x21
  10094a:	e8 32 ff ff ff       	call   100881 <outb>
  10094f:	83 c4 08             	add    $0x8,%esp
  100952:	68 ff 00 00 00       	push   $0xff
  100957:	68 a1 00 00 00       	push   $0xa1
  10095c:	e8 20 ff ff ff       	call   100881 <outb>
  100961:	83 c4 08             	add    $0x8,%esp
  100964:	6a 36                	push   $0x36
  100966:	6a 43                	push   $0x43
  100968:	e8 14 ff ff ff       	call   100881 <outb>
  10096d:	83 c4 08             	add    $0x8,%esp
  100970:	b8 dc 34 12 00       	mov    $0x1234dc,%eax
  100975:	ba 00 00 00 00       	mov    $0x0,%edx
  10097a:	f7 75 0c             	divl   0xc(%ebp)
  10097d:	66 89 45 fe          	mov    %ax,-0x2(%ebp)
  100981:	66 8b 45 fe          	mov    -0x2(%ebp),%ax
  100985:	0f b6 c0             	movzbl %al,%eax
  100988:	50                   	push   %eax
  100989:	6a 40                	push   $0x40
  10098b:	e8 f1 fe ff ff       	call   100881 <outb>
  100990:	83 c4 08             	add    $0x8,%esp
  100993:	66 8b 45 fe          	mov    -0x2(%ebp),%ax
  100997:	66 c1 e8 08          	shr    $0x8,%ax
  10099b:	0f b6 c0             	movzbl %al,%eax
  10099e:	50                   	push   %eax
  10099f:	6a 40                	push   $0x40
  1009a1:	e8 db fe ff ff       	call   100881 <outb>
  1009a6:	83 c4 08             	add    $0x8,%esp
  1009a9:	90                   	nop
  1009aa:	c9                   	leave  
  1009ab:	c3                   	ret    

001009ac <on_timer>:
  1009ac:	55                   	push   %ebp
  1009ad:	89 e5                	mov    %esp,%ebp
  1009af:	83 ec 08             	sub    $0x8,%esp
  1009b2:	a1 00 70 11 00       	mov    0x117000,%eax
  1009b7:	40                   	inc    %eax
  1009b8:	a3 00 70 11 00       	mov    %eax,0x117000
  1009bd:	83 ec 0c             	sub    $0xc,%esp
  1009c0:	6a 20                	push   $0x20
  1009c2:	e8 dd fc ff ff       	call   1006a4 <pic_send_eoi>
  1009c7:	83 c4 10             	add    $0x10,%esp
  1009ca:	e8 a2 08 00 00       	call   101271 <check_task_affairs>
  1009cf:	90                   	nop
  1009d0:	c9                   	leave  
  1009d1:	c3                   	ret    
  1009d2:	66 90                	xchg   %ax,%ax
  1009d4:	66 90                	xchg   %ax,%ax
  1009d6:	66 90                	xchg   %ax,%ax
  1009d8:	66 90                	xchg   %ax,%ax
  1009da:	66 90                	xchg   %ax,%ax
  1009dc:	66 90                	xchg   %ax,%ax
  1009de:	66 90                	xchg   %ax,%ax

001009e0 <timer_interrupt_handler>:
  1009e0:	60                   	pusha  
  1009e1:	1e                   	push   %ds
  1009e2:	e8 c5 ff ff ff       	call   1009ac <on_timer>
  1009e7:	1f                   	pop    %ds
  1009e8:	61                   	popa   
  1009e9:	cf                   	iret   

001009ea <outb>:
  1009ea:	55                   	push   %ebp
  1009eb:	89 e5                	mov    %esp,%ebp
  1009ed:	83 ec 08             	sub    $0x8,%esp
  1009f0:	8b 45 08             	mov    0x8(%ebp),%eax
  1009f3:	8b 55 0c             	mov    0xc(%ebp),%edx
  1009f6:	66 89 45 fc          	mov    %ax,-0x4(%ebp)
  1009fa:	88 d0                	mov    %dl,%al
  1009fc:	88 45 f8             	mov    %al,-0x8(%ebp)
  1009ff:	8b 55 fc             	mov    -0x4(%ebp),%edx
  100a02:	8a 45 f8             	mov    -0x8(%ebp),%al
  100a05:	ee                   	out    %al,(%dx)
  100a06:	90                   	nop
  100a07:	c9                   	leave  
  100a08:	c3                   	ret    

00100a09 <write>:
  100a09:	55                   	push   %ebp
  100a0a:	89 e5                	mov    %esp,%ebp
  100a0c:	83 ec 18             	sub    $0x18,%esp
  100a0f:	c7 45 f4 00 00 00 00 	movl   $0x0,-0xc(%ebp)
  100a16:	eb 1c                	jmp    100a34 <write+0x2b>
  100a18:	8b 55 f4             	mov    -0xc(%ebp),%edx
  100a1b:	8b 45 08             	mov    0x8(%ebp),%eax
  100a1e:	01 d0                	add    %edx,%eax
  100a20:	8a 00                	mov    (%eax),%al
  100a22:	0f be c0             	movsbl %al,%eax
  100a25:	83 ec 0c             	sub    $0xc,%esp
  100a28:	50                   	push   %eax
  100a29:	e8 11 00 00 00       	call   100a3f <putchar>
  100a2e:	83 c4 10             	add    $0x10,%esp
  100a31:	ff 45 f4             	incl   -0xc(%ebp)
  100a34:	8b 45 f4             	mov    -0xc(%ebp),%eax
  100a37:	3b 45 0c             	cmp    0xc(%ebp),%eax
  100a3a:	7c dc                	jl     100a18 <write+0xf>
  100a3c:	90                   	nop
  100a3d:	c9                   	leave  
  100a3e:	c3                   	ret    

00100a3f <putchar>:
  100a3f:	55                   	push   %ebp
  100a40:	89 e5                	mov    %esp,%ebp
  100a42:	83 ec 08             	sub    $0x8,%esp
  100a45:	83 7d 08 0a          	cmpl   $0xa,0x8(%ebp)
  100a49:	75 07                	jne    100a52 <putchar+0x13>
  100a4b:	e8 96 00 00 00       	call   100ae6 <println>
  100a50:	eb 2c                	jmp    100a7e <putchar+0x3f>
  100a52:	83 7d 08 08          	cmpl   $0x8,0x8(%ebp)
  100a56:	75 07                	jne    100a5f <putchar+0x20>
  100a58:	e8 d7 00 00 00       	call   100b34 <print_back>
  100a5d:	eb 1f                	jmp    100a7e <putchar+0x3f>
  100a5f:	a1 20 70 11 00       	mov    0x117020,%eax
  100a64:	8b 55 08             	mov    0x8(%ebp),%edx
  100a67:	88 10                	mov    %dl,(%eax)
  100a69:	83 ec 0c             	sub    $0xc,%esp
  100a6c:	68 20 70 11 00       	push   $0x117020
  100a71:	e8 eb 01 00 00       	call   100c61 <cursor_state_inc>
  100a76:	83 c4 10             	add    $0x10,%esp
  100a79:	e8 3e 01 00 00       	call   100bbc <check_scroll_up>
  100a7e:	90                   	nop
  100a7f:	c9                   	leave  
  100a80:	c3                   	ret    

00100a81 <printf>:
  100a81:	55                   	push   %ebp
  100a82:	89 e5                	mov    %esp,%ebp
  100a84:	83 ec 08             	sub    $0x8,%esp
  100a87:	83 ec 0c             	sub    $0xc,%esp
  100a8a:	ff 75 08             	pushl  0x8(%ebp)
  100a8d:	e8 b2 0b 00 00       	call   101644 <strlen>
  100a92:	83 c4 10             	add    $0x10,%esp
  100a95:	83 ec 08             	sub    $0x8,%esp
  100a98:	50                   	push   %eax
  100a99:	ff 75 08             	pushl  0x8(%ebp)
  100a9c:	e8 68 ff ff ff       	call   100a09 <write>
  100aa1:	83 c4 10             	add    $0x10,%esp
  100aa4:	b8 00 00 00 00       	mov    $0x0,%eax
  100aa9:	c9                   	leave  
  100aaa:	c3                   	ret    

00100aab <cls>:
  100aab:	55                   	push   %ebp
  100aac:	89 e5                	mov    %esp,%ebp
  100aae:	83 ec 18             	sub    $0x18,%esp
  100ab1:	83 ec 0c             	sub    $0xc,%esp
  100ab4:	68 20 70 11 00       	push   $0x117020
  100ab9:	e8 87 01 00 00       	call   100c45 <cursor_state_init>
  100abe:	83 c4 10             	add    $0x10,%esp
  100ac1:	c7 45 f4 00 00 00 00 	movl   $0x0,-0xc(%ebp)
  100ac8:	eb 10                	jmp    100ada <cls+0x2f>
  100aca:	8b 45 f4             	mov    -0xc(%ebp),%eax
  100acd:	01 c0                	add    %eax,%eax
  100acf:	05 00 80 0b 00       	add    $0xb8000,%eax
  100ad4:	c6 00 20             	movb   $0x20,(%eax)
  100ad7:	ff 45 f4             	incl   -0xc(%ebp)
  100ada:	81 7d f4 cf 07 00 00 	cmpl   $0x7cf,-0xc(%ebp)
  100ae1:	7e e7                	jle    100aca <cls+0x1f>
  100ae3:	90                   	nop
  100ae4:	c9                   	leave  
  100ae5:	c3                   	ret    

00100ae6 <println>:
  100ae6:	55                   	push   %ebp
  100ae7:	89 e5                	mov    %esp,%ebp
  100ae9:	83 ec 18             	sub    $0x18,%esp
  100aec:	a1 20 70 11 00       	mov    0x117020,%eax
  100af1:	8d 90 00 80 f4 ff    	lea    -0xb8000(%eax),%edx
  100af7:	b8 cd cc cc cc       	mov    $0xcccccccd,%eax
  100afc:	f7 e2                	mul    %edx
  100afe:	89 d0                	mov    %edx,%eax
  100b00:	c1 e8 07             	shr    $0x7,%eax
  100b03:	89 45 f4             	mov    %eax,-0xc(%ebp)
  100b06:	8b 45 f4             	mov    -0xc(%ebp),%eax
  100b09:	8d 50 01             	lea    0x1(%eax),%edx
  100b0c:	89 d0                	mov    %edx,%eax
  100b0e:	c1 e0 02             	shl    $0x2,%eax
  100b11:	01 d0                	add    %edx,%eax
  100b13:	c1 e0 05             	shl    $0x5,%eax
  100b16:	05 00 80 0b 00       	add    $0xb8000,%eax
  100b1b:	83 ec 08             	sub    $0x8,%esp
  100b1e:	50                   	push   %eax
  100b1f:	68 20 70 11 00       	push   $0x117020
  100b24:	e8 af 00 00 00       	call   100bd8 <set_cursor_state>
  100b29:	83 c4 10             	add    $0x10,%esp
  100b2c:	e8 8b 00 00 00       	call   100bbc <check_scroll_up>
  100b31:	90                   	nop
  100b32:	c9                   	leave  
  100b33:	c3                   	ret    

00100b34 <print_back>:
  100b34:	55                   	push   %ebp
  100b35:	89 e5                	mov    %esp,%ebp
  100b37:	83 ec 08             	sub    $0x8,%esp
  100b3a:	a1 20 70 11 00       	mov    0x117020,%eax
  100b3f:	83 e8 02             	sub    $0x2,%eax
  100b42:	83 ec 08             	sub    $0x8,%esp
  100b45:	50                   	push   %eax
  100b46:	68 20 70 11 00       	push   $0x117020
  100b4b:	e8 88 00 00 00       	call   100bd8 <set_cursor_state>
  100b50:	83 c4 10             	add    $0x10,%esp
  100b53:	a1 20 70 11 00       	mov    0x117020,%eax
  100b58:	c6 00 20             	movb   $0x20,(%eax)
  100b5b:	90                   	nop
  100b5c:	c9                   	leave  
  100b5d:	c3                   	ret    

00100b5e <tty_init>:
  100b5e:	55                   	push   %ebp
  100b5f:	89 e5                	mov    %esp,%ebp
  100b61:	83 ec 08             	sub    $0x8,%esp
  100b64:	e8 42 ff ff ff       	call   100aab <cls>
  100b69:	e8 d7 01 00 00       	call   100d45 <keyboard_init>
  100b6e:	90                   	nop
  100b6f:	c9                   	leave  
  100b70:	c3                   	ret    

00100b71 <scroll_up>:
  100b71:	55                   	push   %ebp
  100b72:	89 e5                	mov    %esp,%ebp
  100b74:	83 ec 18             	sub    $0x18,%esp
  100b77:	c7 45 f4 00 80 0b 00 	movl   $0xb8000,-0xc(%ebp)
  100b7e:	eb 14                	jmp    100b94 <scroll_up+0x23>
  100b80:	8b 45 f4             	mov    -0xc(%ebp),%eax
  100b83:	66 8b 80 a0 00 00 00 	mov    0xa0(%eax),%ax
  100b8a:	8b 55 f4             	mov    -0xc(%ebp),%edx
  100b8d:	66 89 02             	mov    %ax,(%edx)
  100b90:	83 45 f4 02          	addl   $0x2,-0xc(%ebp)
  100b94:	8b 45 f4             	mov    -0xc(%ebp),%eax
  100b97:	3d 9f 8f 0b 00       	cmp    $0xb8f9f,%eax
  100b9c:	76 e2                	jbe    100b80 <scroll_up+0xf>
  100b9e:	a1 20 70 11 00       	mov    0x117020,%eax
  100ba3:	2d a0 00 00 00       	sub    $0xa0,%eax
  100ba8:	83 ec 08             	sub    $0x8,%esp
  100bab:	50                   	push   %eax
  100bac:	68 20 70 11 00       	push   $0x117020
  100bb1:	e8 22 00 00 00       	call   100bd8 <set_cursor_state>
  100bb6:	83 c4 10             	add    $0x10,%esp
  100bb9:	90                   	nop
  100bba:	c9                   	leave  
  100bbb:	c3                   	ret    

00100bbc <check_scroll_up>:
  100bbc:	55                   	push   %ebp
  100bbd:	89 e5                	mov    %esp,%ebp
  100bbf:	83 ec 08             	sub    $0x8,%esp
  100bc2:	eb 05                	jmp    100bc9 <check_scroll_up+0xd>
  100bc4:	e8 a8 ff ff ff       	call   100b71 <scroll_up>
  100bc9:	a1 20 70 11 00       	mov    0x117020,%eax
  100bce:	3d a0 8f 0b 00       	cmp    $0xb8fa0,%eax
  100bd3:	77 ef                	ja     100bc4 <check_scroll_up+0x8>
  100bd5:	90                   	nop
  100bd6:	c9                   	leave  
  100bd7:	c3                   	ret    

00100bd8 <set_cursor_state>:
  100bd8:	55                   	push   %ebp
  100bd9:	89 e5                	mov    %esp,%ebp
  100bdb:	83 ec 18             	sub    $0x18,%esp
  100bde:	8b 45 08             	mov    0x8(%ebp),%eax
  100be1:	8b 55 0c             	mov    0xc(%ebp),%edx
  100be4:	89 10                	mov    %edx,(%eax)
  100be6:	8b 45 0c             	mov    0xc(%ebp),%eax
  100be9:	2d 00 80 0b 00       	sub    $0xb8000,%eax
  100bee:	d1 f8                	sar    %eax
  100bf0:	89 45 f4             	mov    %eax,-0xc(%ebp)
  100bf3:	8b 45 f4             	mov    -0xc(%ebp),%eax
  100bf6:	b9 50 00 00 00       	mov    $0x50,%ecx
  100bfb:	ba 00 00 00 00       	mov    $0x0,%edx
  100c00:	f7 f1                	div    %ecx
  100c02:	89 d0                	mov    %edx,%eax
  100c04:	88 c2                	mov    %al,%dl
  100c06:	8b 45 08             	mov    0x8(%ebp),%eax
  100c09:	88 50 04             	mov    %dl,0x4(%eax)
  100c0c:	8b 45 f4             	mov    -0xc(%ebp),%eax
  100c0f:	ba cd cc cc cc       	mov    $0xcccccccd,%edx
  100c14:	f7 e2                	mul    %edx
  100c16:	89 d0                	mov    %edx,%eax
  100c18:	c1 e8 06             	shr    $0x6,%eax
  100c1b:	88 c2                	mov    %al,%dl
  100c1d:	8b 45 08             	mov    0x8(%ebp),%eax
  100c20:	88 50 05             	mov    %dl,0x5(%eax)
  100c23:	8b 45 08             	mov    0x8(%ebp),%eax
  100c26:	8a 40 05             	mov    0x5(%eax),%al
  100c29:	0f b6 d0             	movzbl %al,%edx
  100c2c:	8b 45 08             	mov    0x8(%ebp),%eax
  100c2f:	8a 40 04             	mov    0x4(%eax),%al
  100c32:	0f b6 c0             	movzbl %al,%eax
  100c35:	83 ec 08             	sub    $0x8,%esp
  100c38:	52                   	push   %edx
  100c39:	50                   	push   %eax
  100c3a:	e8 4c 00 00 00       	call   100c8b <gotoxy>
  100c3f:	83 c4 10             	add    $0x10,%esp
  100c42:	90                   	nop
  100c43:	c9                   	leave  
  100c44:	c3                   	ret    

00100c45 <cursor_state_init>:
  100c45:	55                   	push   %ebp
  100c46:	89 e5                	mov    %esp,%ebp
  100c48:	83 ec 08             	sub    $0x8,%esp
  100c4b:	83 ec 08             	sub    $0x8,%esp
  100c4e:	68 00 80 0b 00       	push   $0xb8000
  100c53:	ff 75 08             	pushl  0x8(%ebp)
  100c56:	e8 7d ff ff ff       	call   100bd8 <set_cursor_state>
  100c5b:	83 c4 10             	add    $0x10,%esp
  100c5e:	90                   	nop
  100c5f:	c9                   	leave  
  100c60:	c3                   	ret    

00100c61 <cursor_state_inc>:
  100c61:	55                   	push   %ebp
  100c62:	89 e5                	mov    %esp,%ebp
  100c64:	83 ec 08             	sub    $0x8,%esp
  100c67:	8b 45 08             	mov    0x8(%ebp),%eax
  100c6a:	8b 00                	mov    (%eax),%eax
  100c6c:	8d 50 02             	lea    0x2(%eax),%edx
  100c6f:	8b 45 08             	mov    0x8(%ebp),%eax
  100c72:	89 10                	mov    %edx,(%eax)
  100c74:	8b 45 08             	mov    0x8(%ebp),%eax
  100c77:	8b 00                	mov    (%eax),%eax
  100c79:	83 ec 08             	sub    $0x8,%esp
  100c7c:	50                   	push   %eax
  100c7d:	ff 75 08             	pushl  0x8(%ebp)
  100c80:	e8 53 ff ff ff       	call   100bd8 <set_cursor_state>
  100c85:	83 c4 10             	add    $0x10,%esp
  100c88:	90                   	nop
  100c89:	c9                   	leave  
  100c8a:	c3                   	ret    

00100c8b <gotoxy>:
  100c8b:	55                   	push   %ebp
  100c8c:	89 e5                	mov    %esp,%ebp
  100c8e:	83 ec 18             	sub    $0x18,%esp
  100c91:	8b 55 08             	mov    0x8(%ebp),%edx
  100c94:	8b 45 0c             	mov    0xc(%ebp),%eax
  100c97:	88 55 ec             	mov    %dl,-0x14(%ebp)
  100c9a:	88 45 e8             	mov    %al,-0x18(%ebp)
  100c9d:	0f b6 55 e8          	movzbl -0x18(%ebp),%edx
  100ca1:	89 d0                	mov    %edx,%eax
  100ca3:	c1 e0 02             	shl    $0x2,%eax
  100ca6:	01 d0                	add    %edx,%eax
  100ca8:	c1 e0 04             	shl    $0x4,%eax
  100cab:	89 c2                	mov    %eax,%edx
  100cad:	0f b6 45 ec          	movzbl -0x14(%ebp),%eax
  100cb1:	01 d0                	add    %edx,%eax
  100cb3:	66 89 45 fe          	mov    %ax,-0x2(%ebp)
  100cb7:	6a 0e                	push   $0xe
  100cb9:	68 d4 03 00 00       	push   $0x3d4
  100cbe:	e8 27 fd ff ff       	call   1009ea <outb>
  100cc3:	83 c4 08             	add    $0x8,%esp
  100cc6:	66 8b 45 fe          	mov    -0x2(%ebp),%ax
  100cca:	66 c1 e8 08          	shr    $0x8,%ax
  100cce:	0f b6 c0             	movzbl %al,%eax
  100cd1:	50                   	push   %eax
  100cd2:	68 d5 03 00 00       	push   $0x3d5
  100cd7:	e8 0e fd ff ff       	call   1009ea <outb>
  100cdc:	83 c4 08             	add    $0x8,%esp
  100cdf:	6a 0f                	push   $0xf
  100ce1:	68 d4 03 00 00       	push   $0x3d4
  100ce6:	e8 ff fc ff ff       	call   1009ea <outb>
  100ceb:	83 c4 08             	add    $0x8,%esp
  100cee:	66 8b 45 fe          	mov    -0x2(%ebp),%ax
  100cf2:	0f b6 c0             	movzbl %al,%eax
  100cf5:	50                   	push   %eax
  100cf6:	68 d5 03 00 00       	push   $0x3d5
  100cfb:	e8 ea fc ff ff       	call   1009ea <outb>
  100d00:	83 c4 08             	add    $0x8,%esp
  100d03:	90                   	nop
  100d04:	c9                   	leave  
  100d05:	c3                   	ret    

00100d06 <emphasize>:
  100d06:	55                   	push   %ebp
  100d07:	89 e5                	mov    %esp,%ebp
  100d09:	83 ec 08             	sub    $0x8,%esp
  100d0c:	83 ec 0c             	sub    $0xc,%esp
  100d0f:	ff 75 08             	pushl  0x8(%ebp)
  100d12:	e8 6a fd ff ff       	call   100a81 <printf>
  100d17:	83 c4 10             	add    $0x10,%esp
  100d1a:	eb f0                	jmp    100d0c <emphasize+0x6>
  100d1c:	66 90                	xchg   %ax,%ax
  100d1e:	66 90                	xchg   %ax,%ax

00100d20 <keyboard_interrupt_handler>:
  100d20:	60                   	pusha  
  100d21:	1e                   	push   %ds
  100d22:	e8 86 00 00 00       	call   100dad <on_keyboard>
  100d27:	1f                   	pop    %ds
  100d28:	61                   	popa   
  100d29:	cf                   	iret   

00100d2a <inb>:
  100d2a:	55                   	push   %ebp
  100d2b:	89 e5                	mov    %esp,%ebp
  100d2d:	83 ec 14             	sub    $0x14,%esp
  100d30:	8b 45 08             	mov    0x8(%ebp),%eax
  100d33:	66 89 45 ec          	mov    %ax,-0x14(%ebp)
  100d37:	8b 45 ec             	mov    -0x14(%ebp),%eax
  100d3a:	89 c2                	mov    %eax,%edx
  100d3c:	ec                   	in     (%dx),%al
  100d3d:	88 45 ff             	mov    %al,-0x1(%ebp)
  100d40:	8a 45 ff             	mov    -0x1(%ebp),%al
  100d43:	c9                   	leave  
  100d44:	c3                   	ret    

00100d45 <keyboard_init>:
  100d45:	55                   	push   %ebp
  100d46:	89 e5                	mov    %esp,%ebp
  100d48:	83 ec 08             	sub    $0x8,%esp
  100d4b:	83 ec 0c             	sub    $0xc,%esp
  100d4e:	68 40 74 11 00       	push   $0x117440
  100d53:	e8 26 00 00 00       	call   100d7e <keyboard_state_init>
  100d58:	83 c4 10             	add    $0x10,%esp
  100d5b:	b8 20 0d 10 00       	mov    $0x100d20,%eax
  100d60:	83 ec 08             	sub    $0x8,%esp
  100d63:	50                   	push   %eax
  100d64:	6a 21                	push   $0x21
  100d66:	e8 01 f9 ff ff       	call   10066c <set_idt>
  100d6b:	83 c4 10             	add    $0x10,%esp
  100d6e:	83 ec 0c             	sub    $0xc,%esp
  100d71:	6a 21                	push   $0x21
  100d73:	e8 ea f9 ff ff       	call   100762 <interrupt_enable>
  100d78:	83 c4 10             	add    $0x10,%esp
  100d7b:	90                   	nop
  100d7c:	c9                   	leave  
  100d7d:	c3                   	ret    

00100d7e <keyboard_state_init>:
  100d7e:	55                   	push   %ebp
  100d7f:	89 e5                	mov    %esp,%ebp
  100d81:	8b 45 08             	mov    0x8(%ebp),%eax
  100d84:	c6 40 04 00          	movb   $0x0,0x4(%eax)
  100d88:	8b 45 08             	mov    0x8(%ebp),%eax
  100d8b:	c6 40 05 00          	movb   $0x0,0x5(%eax)
  100d8f:	8b 45 08             	mov    0x8(%ebp),%eax
  100d92:	c6 00 00             	movb   $0x0,(%eax)
  100d95:	8b 45 08             	mov    0x8(%ebp),%eax
  100d98:	c6 40 01 00          	movb   $0x0,0x1(%eax)
  100d9c:	8b 45 08             	mov    0x8(%ebp),%eax
  100d9f:	c6 40 02 00          	movb   $0x0,0x2(%eax)
  100da3:	8b 45 08             	mov    0x8(%ebp),%eax
  100da6:	c6 40 03 00          	movb   $0x0,0x3(%eax)
  100daa:	90                   	nop
  100dab:	5d                   	pop    %ebp
  100dac:	c3                   	ret    

00100dad <on_keyboard>:
  100dad:	55                   	push   %ebp
  100dae:	89 e5                	mov    %esp,%ebp
  100db0:	83 ec 08             	sub    $0x8,%esp
  100db3:	6a 64                	push   $0x64
  100db5:	e8 70 ff ff ff       	call   100d2a <inb>
  100dba:	83 c4 04             	add    $0x4,%esp
  100dbd:	0f b6 c0             	movzbl %al,%eax
  100dc0:	83 e0 01             	and    $0x1,%eax
  100dc3:	85 c0                	test   %eax,%eax
  100dc5:	74 19                	je     100de0 <on_keyboard+0x33>
  100dc7:	6a 60                	push   $0x60
  100dc9:	e8 5c ff ff ff       	call   100d2a <inb>
  100dce:	83 c4 04             	add    $0x4,%esp
  100dd1:	0f b6 c0             	movzbl %al,%eax
  100dd4:	83 ec 0c             	sub    $0xc,%esp
  100dd7:	50                   	push   %eax
  100dd8:	e8 41 00 00 00       	call   100e1e <on_key>
  100ddd:	83 c4 10             	add    $0x10,%esp
  100de0:	83 ec 0c             	sub    $0xc,%esp
  100de3:	6a 21                	push   $0x21
  100de5:	e8 ba f8 ff ff       	call   1006a4 <pic_send_eoi>
  100dea:	83 c4 10             	add    $0x10,%esp
  100ded:	90                   	nop
  100dee:	c9                   	leave  
  100def:	c3                   	ret    

00100df0 <on_usual_key_pressed>:
  100df0:	55                   	push   %ebp
  100df1:	89 e5                	mov    %esp,%ebp
  100df3:	83 ec 18             	sub    $0x18,%esp
  100df6:	8b 45 08             	mov    0x8(%ebp),%eax
  100df9:	88 45 f4             	mov    %al,-0xc(%ebp)
  100dfc:	0f be 45 f4          	movsbl -0xc(%ebp),%eax
  100e00:	83 ec 0c             	sub    $0xc,%esp
  100e03:	50                   	push   %eax
  100e04:	e8 36 fc ff ff       	call   100a3f <putchar>
  100e09:	83 c4 10             	add    $0x10,%esp
  100e0c:	90                   	nop
  100e0d:	c9                   	leave  
  100e0e:	c3                   	ret    

00100e0f <on_usual_key_released>:
  100e0f:	55                   	push   %ebp
  100e10:	89 e5                	mov    %esp,%ebp
  100e12:	83 ec 04             	sub    $0x4,%esp
  100e15:	8b 45 08             	mov    0x8(%ebp),%eax
  100e18:	88 45 fc             	mov    %al,-0x4(%ebp)
  100e1b:	90                   	nop
  100e1c:	c9                   	leave  
  100e1d:	c3                   	ret    

00100e1e <on_key>:
  100e1e:	55                   	push   %ebp
  100e1f:	89 e5                	mov    %esp,%ebp
  100e21:	83 ec 28             	sub    $0x28,%esp
  100e24:	8b 45 08             	mov    0x8(%ebp),%eax
  100e27:	88 45 e4             	mov    %al,-0x1c(%ebp)
  100e2a:	8a 45 e4             	mov    -0x1c(%ebp),%al
  100e2d:	83 e0 7f             	and    $0x7f,%eax
  100e30:	88 45 f7             	mov    %al,-0x9(%ebp)
  100e33:	e8 2c 01 00 00       	call   100f64 <should_enable_upper_case>
  100e38:	84 c0                	test   %al,%al
  100e3a:	74 13                	je     100e4f <on_key+0x31>
  100e3c:	0f b6 45 f7          	movzbl -0x9(%ebp),%eax
  100e40:	89 c2                	mov    %eax,%edx
  100e42:	01 d2                	add    %edx,%edx
  100e44:	01 d0                	add    %edx,%eax
  100e46:	05 42 3f 10 00       	add    $0x103f42,%eax
  100e4b:	8a 00                	mov    (%eax),%al
  100e4d:	eb 11                	jmp    100e60 <on_key+0x42>
  100e4f:	0f b6 45 f7          	movzbl -0x9(%ebp),%eax
  100e53:	89 c2                	mov    %eax,%edx
  100e55:	01 d2                	add    %edx,%edx
  100e57:	01 d0                	add    %edx,%eax
  100e59:	05 41 3f 10 00       	add    $0x103f41,%eax
  100e5e:	8a 00                	mov    (%eax),%al
  100e60:	88 45 f6             	mov    %al,-0xa(%ebp)
  100e63:	8a 45 e4             	mov    -0x1c(%ebp),%al
  100e66:	84 c0                	test   %al,%al
  100e68:	79 54                	jns    100ebe <on_key+0xa0>
  100e6a:	0f b6 45 e4          	movzbl -0x1c(%ebp),%eax
  100e6e:	83 ec 0c             	sub    $0xc,%esp
  100e71:	50                   	push   %eax
  100e72:	e8 c5 00 00 00       	call   100f3c <is_usual_key>
  100e77:	83 c4 10             	add    $0x10,%esp
  100e7a:	84 c0                	test   %al,%al
  100e7c:	74 15                	je     100e93 <on_key+0x75>
  100e7e:	0f be 45 f6          	movsbl -0xa(%ebp),%eax
  100e82:	83 ec 0c             	sub    $0xc,%esp
  100e85:	50                   	push   %eax
  100e86:	e8 84 ff ff ff       	call   100e0f <on_usual_key_released>
  100e8b:	83 c4 10             	add    $0x10,%esp
  100e8e:	e9 a6 00 00 00       	jmp    100f39 <on_key+0x11b>
  100e93:	0f b6 45 f7          	movzbl -0x9(%ebp),%eax
  100e97:	83 f8 2a             	cmp    $0x2a,%eax
  100e9a:	74 05                	je     100ea1 <on_key+0x83>
  100e9c:	e9 98 00 00 00       	jmp    100f39 <on_key+0x11b>
  100ea1:	a0 41 74 11 00       	mov    0x117441,%al
  100ea6:	0f b6 c0             	movzbl %al,%eax
  100ea9:	85 c0                	test   %eax,%eax
  100eab:	0f 95 c0             	setne  %al
  100eae:	83 f0 01             	xor    $0x1,%eax
  100eb1:	0f b6 c0             	movzbl %al,%eax
  100eb4:	83 e0 01             	and    $0x1,%eax
  100eb7:	a2 41 74 11 00       	mov    %al,0x117441
  100ebc:	eb 7b                	jmp    100f39 <on_key+0x11b>
  100ebe:	0f b6 45 e4          	movzbl -0x1c(%ebp),%eax
  100ec2:	83 ec 0c             	sub    $0xc,%esp
  100ec5:	50                   	push   %eax
  100ec6:	e8 71 00 00 00       	call   100f3c <is_usual_key>
  100ecb:	83 c4 10             	add    $0x10,%esp
  100ece:	84 c0                	test   %al,%al
  100ed0:	74 12                	je     100ee4 <on_key+0xc6>
  100ed2:	0f be 45 f6          	movsbl -0xa(%ebp),%eax
  100ed6:	83 ec 0c             	sub    $0xc,%esp
  100ed9:	50                   	push   %eax
  100eda:	e8 11 ff ff ff       	call   100df0 <on_usual_key_pressed>
  100edf:	83 c4 10             	add    $0x10,%esp
  100ee2:	eb 55                	jmp    100f39 <on_key+0x11b>
  100ee4:	0f b6 45 f7          	movzbl -0x9(%ebp),%eax
  100ee8:	83 f8 2a             	cmp    $0x2a,%eax
  100eeb:	74 30                	je     100f1d <on_key+0xff>
  100eed:	83 f8 3a             	cmp    $0x3a,%eax
  100ef0:	74 0e                	je     100f00 <on_key+0xe2>
  100ef2:	83 f8 0e             	cmp    $0xe,%eax
  100ef5:	74 02                	je     100ef9 <on_key+0xdb>
  100ef7:	eb 40                	jmp    100f39 <on_key+0x11b>
  100ef9:	e8 36 fc ff ff       	call   100b34 <print_back>
  100efe:	eb 39                	jmp    100f39 <on_key+0x11b>
  100f00:	a0 40 74 11 00       	mov    0x117440,%al
  100f05:	0f b6 c0             	movzbl %al,%eax
  100f08:	85 c0                	test   %eax,%eax
  100f0a:	0f 95 c0             	setne  %al
  100f0d:	83 f0 01             	xor    $0x1,%eax
  100f10:	0f b6 c0             	movzbl %al,%eax
  100f13:	83 e0 01             	and    $0x1,%eax
  100f16:	a2 40 74 11 00       	mov    %al,0x117440
  100f1b:	eb 1c                	jmp    100f39 <on_key+0x11b>
  100f1d:	a0 41 74 11 00       	mov    0x117441,%al
  100f22:	0f b6 c0             	movzbl %al,%eax
  100f25:	85 c0                	test   %eax,%eax
  100f27:	0f 95 c0             	setne  %al
  100f2a:	83 f0 01             	xor    $0x1,%eax
  100f2d:	0f b6 c0             	movzbl %al,%eax
  100f30:	83 e0 01             	and    $0x1,%eax
  100f33:	a2 41 74 11 00       	mov    %al,0x117441
  100f38:	90                   	nop
  100f39:	90                   	nop
  100f3a:	c9                   	leave  
  100f3b:	c3                   	ret    

00100f3c <is_usual_key>:
  100f3c:	55                   	push   %ebp
  100f3d:	89 e5                	mov    %esp,%ebp
  100f3f:	83 ec 14             	sub    $0x14,%esp
  100f42:	8b 45 08             	mov    0x8(%ebp),%eax
  100f45:	88 45 ec             	mov    %al,-0x14(%ebp)
  100f48:	8a 45 ec             	mov    -0x14(%ebp),%al
  100f4b:	83 e0 7f             	and    $0x7f,%eax
  100f4e:	88 45 ff             	mov    %al,-0x1(%ebp)
  100f51:	0f b6 45 ff          	movzbl -0x1(%ebp),%eax
  100f55:	89 c2                	mov    %eax,%edx
  100f57:	01 d2                	add    %edx,%edx
  100f59:	01 d0                	add    %edx,%eax
  100f5b:	05 40 3f 10 00       	add    $0x103f40,%eax
  100f60:	8a 00                	mov    (%eax),%al
  100f62:	c9                   	leave  
  100f63:	c3                   	ret    

00100f64 <should_enable_upper_case>:
  100f64:	55                   	push   %ebp
  100f65:	89 e5                	mov    %esp,%ebp
  100f67:	8a 15 40 74 11 00    	mov    0x117440,%dl
  100f6d:	a0 41 74 11 00       	mov    0x117441,%al
  100f72:	31 d0                	xor    %edx,%eax
  100f74:	0f b6 c0             	movzbl %al,%eax
  100f77:	85 c0                	test   %eax,%eax
  100f79:	0f 95 c0             	setne  %al
  100f7c:	5d                   	pop    %ebp
  100f7d:	c3                   	ret    
  100f7e:	66 90                	xchg   %ax,%ax

00100f80 <idle>:
  100f80:	eb fe                	jmp    100f80 <idle>

00100f82 <jmpf>:
  100f82:	55                   	push   %ebp
  100f83:	89 e5                	mov    %esp,%ebp
  100f85:	83 ec 10             	sub    $0x10,%esp
  100f88:	8b 45 0c             	mov    0xc(%ebp),%eax
  100f8b:	89 45 f8             	mov    %eax,-0x8(%ebp)
  100f8e:	8b 45 08             	mov    0x8(%ebp),%eax
  100f91:	89 45 fc             	mov    %eax,-0x4(%ebp)
  100f94:	8d 45 f8             	lea    -0x8(%ebp),%eax
  100f97:	ff 28                	ljmp   *(%eax)
  100f99:	90                   	nop
  100f9a:	c9                   	leave  
  100f9b:	c3                   	ret    

00100f9c <task_init>:
  100f9c:	55                   	push   %ebp
  100f9d:	89 e5                	mov    %esp,%ebp
  100f9f:	83 ec 28             	sub    $0x28,%esp
  100fa2:	8b 45 08             	mov    0x8(%ebp),%eax
  100fa5:	66 89 45 e4          	mov    %ax,-0x1c(%ebp)
  100fa9:	0f b7 55 e4          	movzwl -0x1c(%ebp),%edx
  100fad:	89 d0                	mov    %edx,%eax
  100faf:	01 c0                	add    %eax,%eax
  100fb1:	01 d0                	add    %edx,%eax
  100fb3:	8d 14 85 00 00 00 00 	lea    0x0(,%eax,4),%edx
  100fba:	01 d0                	add    %edx,%eax
  100fbc:	c1 e0 03             	shl    $0x3,%eax
  100fbf:	05 a0 dc 11 00       	add    $0x11dca0,%eax
  100fc4:	89 45 f4             	mov    %eax,-0xc(%ebp)
  100fc7:	8b 45 f4             	mov    -0xc(%ebp),%eax
  100fca:	83 c0 08             	add    $0x8,%eax
  100fcd:	83 ec 04             	sub    $0x4,%esp
  100fd0:	6a 00                	push   $0x0
  100fd2:	50                   	push   %eax
  100fd3:	8d 45 e8             	lea    -0x18(%ebp),%eax
  100fd6:	50                   	push   %eax
  100fd7:	e8 08 01 00 00       	call   1010e4 <make_gdt_desc_for_tss>
  100fdc:	83 c4 10             	add    $0x10,%esp
  100fdf:	0f b7 4d e4          	movzwl -0x1c(%ebp),%ecx
  100fe3:	8b 45 e8             	mov    -0x18(%ebp),%eax
  100fe6:	8b 55 ec             	mov    -0x14(%ebp),%edx
  100fe9:	89 04 cd 00 60 10 00 	mov    %eax,0x106000(,%ecx,8)
  100ff0:	89 14 cd 04 60 10 00 	mov    %edx,0x106004(,%ecx,8)
  100ff7:	8b 45 f4             	mov    -0xc(%ebp),%eax
  100ffa:	8b 55 14             	mov    0x14(%ebp),%edx
  100ffd:	89 50 40             	mov    %edx,0x40(%eax)
  101000:	8b 45 f4             	mov    -0xc(%ebp),%eax
  101003:	8b 55 10             	mov    0x10(%ebp),%edx
  101006:	89 50 28             	mov    %edx,0x28(%eax)
  101009:	8b 45 f4             	mov    -0xc(%ebp),%eax
  10100c:	c7 40 2c 02 02 00 00 	movl   $0x202,0x2c(%eax)
  101013:	83 7d 0c 00          	cmpl   $0x0,0xc(%ebp)
  101017:	75 20                	jne    101039 <task_init+0x9d>
  101019:	8b 45 f4             	mov    -0xc(%ebp),%eax
  10101c:	c7 40 54 08 00 00 00 	movl   $0x8,0x54(%eax)
  101023:	8b 45 f4             	mov    -0xc(%ebp),%eax
  101026:	c7 40 58 10 00 00 00 	movl   $0x10,0x58(%eax)
  10102d:	8b 45 f4             	mov    -0xc(%ebp),%eax
  101030:	c7 40 5c 10 00 00 00 	movl   $0x10,0x5c(%eax)
  101037:	eb 1e                	jmp    101057 <task_init+0xbb>
  101039:	8b 45 f4             	mov    -0xc(%ebp),%eax
  10103c:	c7 40 54 1b 00 00 00 	movl   $0x1b,0x54(%eax)
  101043:	8b 45 f4             	mov    -0xc(%ebp),%eax
  101046:	c7 40 58 23 00 00 00 	movl   $0x23,0x58(%eax)
  10104d:	8b 45 f4             	mov    -0xc(%ebp),%eax
  101050:	c7 40 5c 23 00 00 00 	movl   $0x23,0x5c(%eax)
  101057:	e8 c4 12 00 00       	call   102320 <p_malloc>
  10105c:	89 45 f0             	mov    %eax,-0x10(%ebp)
  10105f:	b8 00 c0 21 00       	mov    $0x21c000,%eax
  101064:	83 ec 08             	sub    $0x8,%esp
  101067:	ff 75 f0             	pushl  -0x10(%ebp)
  10106a:	50                   	push   %eax
  10106b:	e8 29 13 00 00       	call   102399 <copy_pts>
  101070:	83 c4 10             	add    $0x10,%esp
  101073:	8b 45 f4             	mov    -0xc(%ebp),%eax
  101076:	8b 55 f0             	mov    -0x10(%ebp),%edx
  101079:	89 50 24             	mov    %edx,0x24(%eax)
  10107c:	8b 45 f4             	mov    -0xc(%ebp),%eax
  10107f:	8b 55 18             	mov    0x18(%ebp),%edx
  101082:	89 50 74             	mov    %edx,0x74(%eax)
  101085:	0f b7 45 e4          	movzwl -0x1c(%ebp),%eax
  101089:	83 ec 08             	sub    $0x8,%esp
  10108c:	6a 00                	push   $0x0
  10108e:	50                   	push   %eax
  10108f:	e8 e0 00 00 00       	call   101174 <set_task_state>
  101094:	83 c4 10             	add    $0x10,%esp
  101097:	90                   	nop
  101098:	c9                   	leave  
  101099:	c3                   	ret    

0010109a <get_pid_empty>:
  10109a:	55                   	push   %ebp
  10109b:	89 e5                	mov    %esp,%ebp
  10109d:	83 ec 10             	sub    $0x10,%esp
  1010a0:	66 c7 45 fe 01 00    	movw   $0x1,-0x2(%ebp)
  1010a6:	eb 2d                	jmp    1010d5 <get_pid_empty+0x3b>
  1010a8:	0f b7 45 fe          	movzwl -0x2(%ebp),%eax
  1010ac:	8b 04 c5 00 60 10 00 	mov    0x106000(,%eax,8),%eax
  1010b3:	85 c0                	test   %eax,%eax
  1010b5:	75 15                	jne    1010cc <get_pid_empty+0x32>
  1010b7:	0f b7 45 fe          	movzwl -0x2(%ebp),%eax
  1010bb:	8b 04 c5 04 60 10 00 	mov    0x106004(,%eax,8),%eax
  1010c2:	85 c0                	test   %eax,%eax
  1010c4:	75 06                	jne    1010cc <get_pid_empty+0x32>
  1010c6:	66 8b 45 fe          	mov    -0x2(%ebp),%ax
  1010ca:	eb 16                	jmp    1010e2 <get_pid_empty+0x48>
  1010cc:	66 8b 45 fe          	mov    -0x2(%ebp),%ax
  1010d0:	40                   	inc    %eax
  1010d1:	66 89 45 fe          	mov    %ax,-0x2(%ebp)
  1010d5:	66 81 7d fe ff 1f    	cmpw   $0x1fff,-0x2(%ebp)
  1010db:	76 cb                	jbe    1010a8 <get_pid_empty+0xe>
  1010dd:	b8 ff ff ff ff       	mov    $0xffffffff,%eax
  1010e2:	c9                   	leave  
  1010e3:	c3                   	ret    

001010e4 <make_gdt_desc_for_tss>:
  1010e4:	55                   	push   %ebp
  1010e5:	89 e5                	mov    %esp,%ebp
  1010e7:	83 ec 14             	sub    $0x14,%esp
  1010ea:	8b 45 10             	mov    0x10(%ebp),%eax
  1010ed:	88 45 ec             	mov    %al,-0x14(%ebp)
  1010f0:	8b 45 0c             	mov    0xc(%ebp),%eax
  1010f3:	0f b7 c0             	movzwl %ax,%eax
  1010f6:	89 45 fc             	mov    %eax,-0x4(%ebp)
  1010f9:	8b 45 0c             	mov    0xc(%ebp),%eax
  1010fc:	25 00 00 ff 00       	and    $0xff0000,%eax
  101101:	89 45 f8             	mov    %eax,-0x8(%ebp)
  101104:	8b 45 0c             	mov    0xc(%ebp),%eax
  101107:	25 00 00 00 ff       	and    $0xff000000,%eax
  10110c:	89 45 f4             	mov    %eax,-0xc(%ebp)
  10110f:	8b 45 f8             	mov    -0x8(%ebp),%eax
  101112:	c1 e8 10             	shr    $0x10,%eax
  101115:	0b 45 f4             	or     -0xc(%ebp),%eax
  101118:	0f b6 55 ec          	movzbl -0x14(%ebp),%edx
  10111c:	c1 e2 0c             	shl    $0xc,%edx
  10111f:	09 d0                	or     %edx,%eax
  101121:	0d 00 89 0f 00       	or     $0xf8900,%eax
  101126:	89 c2                	mov    %eax,%edx
  101128:	8b 45 08             	mov    0x8(%ebp),%eax
  10112b:	89 50 04             	mov    %edx,0x4(%eax)
  10112e:	8b 45 fc             	mov    -0x4(%ebp),%eax
  101131:	c1 e0 10             	shl    $0x10,%eax
  101134:	0d ff ff 00 00       	or     $0xffff,%eax
  101139:	89 c2                	mov    %eax,%edx
  10113b:	8b 45 08             	mov    0x8(%ebp),%eax
  10113e:	89 10                	mov    %edx,(%eax)
  101140:	90                   	nop
  101141:	c9                   	leave  
  101142:	c3                   	ret    

00101143 <create_task>:
  101143:	55                   	push   %ebp
  101144:	89 e5                	mov    %esp,%ebp
  101146:	83 ec 18             	sub    $0x18,%esp
  101149:	e8 4c ff ff ff       	call   10109a <get_pid_empty>
  10114e:	66 89 45 f6          	mov    %ax,-0xa(%ebp)
  101152:	0f b7 45 f6          	movzwl -0xa(%ebp),%eax
  101156:	83 ec 0c             	sub    $0xc,%esp
  101159:	ff 75 14             	pushl  0x14(%ebp)
  10115c:	ff 75 10             	pushl  0x10(%ebp)
  10115f:	ff 75 0c             	pushl  0xc(%ebp)
  101162:	ff 75 08             	pushl  0x8(%ebp)
  101165:	50                   	push   %eax
  101166:	e8 31 fe ff ff       	call   100f9c <task_init>
  10116b:	83 c4 20             	add    $0x20,%esp
  10116e:	66 8b 45 f6          	mov    -0xa(%ebp),%ax
  101172:	c9                   	leave  
  101173:	c3                   	ret    

00101174 <set_task_state>:
  101174:	55                   	push   %ebp
  101175:	89 e5                	mov    %esp,%ebp
  101177:	83 ec 18             	sub    $0x18,%esp
  10117a:	8b 45 08             	mov    0x8(%ebp),%eax
  10117d:	66 89 45 f4          	mov    %ax,-0xc(%ebp)
  101181:	0f b7 55 f4          	movzwl -0xc(%ebp),%edx
  101185:	89 d0                	mov    %edx,%eax
  101187:	01 c0                	add    %eax,%eax
  101189:	01 d0                	add    %edx,%eax
  10118b:	8d 14 85 00 00 00 00 	lea    0x0(,%eax,4),%edx
  101192:	01 d0                	add    %edx,%eax
  101194:	c1 e0 03             	shl    $0x3,%eax
  101197:	8d 90 a4 dc 11 00    	lea    0x11dca4(%eax),%edx
  10119d:	8b 45 0c             	mov    0xc(%ebp),%eax
  1011a0:	89 02                	mov    %eax,(%edx)
  1011a2:	8b 45 0c             	mov    0xc(%ebp),%eax
  1011a5:	83 f8 01             	cmp    $0x1,%eax
  1011a8:	74 28                	je     1011d2 <set_task_state+0x5e>
  1011aa:	83 f8 01             	cmp    $0x1,%eax
  1011ad:	72 0c                	jb     1011bb <set_task_state+0x47>
  1011af:	83 f8 02             	cmp    $0x2,%eax
  1011b2:	74 3e                	je     1011f2 <set_task_state+0x7e>
  1011b4:	83 f8 03             	cmp    $0x3,%eax
  1011b7:	74 50                	je     101209 <set_task_state+0x95>
  1011b9:	eb 64                	jmp    10121f <set_task_state+0xab>
  1011bb:	0f b7 45 f4          	movzwl -0xc(%ebp),%eax
  1011bf:	83 ec 08             	sub    $0x8,%esp
  1011c2:	50                   	push   %eax
  1011c3:	68 a6 dc 20 00       	push   $0x20dca6
  1011c8:	e8 d1 08 00 00       	call   101a9e <pid_enqueue>
  1011cd:	83 c4 10             	add    $0x10,%esp
  1011d0:	eb 4d                	jmp    10121f <set_task_state+0xab>
  1011d2:	8b 45 f4             	mov    -0xc(%ebp),%eax
  1011d5:	66 a3 a4 dc 20 00    	mov    %ax,0x20dca4
  1011db:	0f b7 45 f4          	movzwl -0xc(%ebp),%eax
  1011df:	c1 e0 03             	shl    $0x3,%eax
  1011e2:	83 ec 08             	sub    $0x8,%esp
  1011e5:	6a 00                	push   $0x0
  1011e7:	50                   	push   %eax
  1011e8:	e8 95 fd ff ff       	call   100f82 <jmpf>
  1011ed:	83 c4 10             	add    $0x10,%esp
  1011f0:	eb 2d                	jmp    10121f <set_task_state+0xab>
  1011f2:	0f b7 45 f4          	movzwl -0xc(%ebp),%eax
  1011f6:	83 ec 08             	sub    $0x8,%esp
  1011f9:	50                   	push   %eax
  1011fa:	68 aa 1c 21 00       	push   $0x211caa
  1011ff:	e8 9a 08 00 00       	call   101a9e <pid_enqueue>
  101204:	83 c4 10             	add    $0x10,%esp
  101207:	eb 16                	jmp    10121f <set_task_state+0xab>
  101209:	0f b7 45 f4          	movzwl -0xc(%ebp),%eax
  10120d:	83 ec 08             	sub    $0x8,%esp
  101210:	50                   	push   %eax
  101211:	68 ae 5c 21 00       	push   $0x215cae
  101216:	e8 83 08 00 00       	call   101a9e <pid_enqueue>
  10121b:	83 c4 10             	add    $0x10,%esp
  10121e:	90                   	nop
  10121f:	90                   	nop
  101220:	c9                   	leave  
  101221:	c3                   	ret    

00101222 <sched_init>:
  101222:	55                   	push   %ebp
  101223:	89 e5                	mov    %esp,%ebp
  101225:	83 ec 08             	sub    $0x8,%esp
  101228:	83 ec 0c             	sub    $0xc,%esp
  10122b:	68 a0 dc 11 00       	push   $0x11dca0
  101230:	e8 75 01 00 00       	call   1013aa <task_manager_init>
  101235:	83 c4 10             	add    $0x10,%esp
  101238:	ba c0 ac 21 00       	mov    $0x21acc0,%edx
  10123d:	b8 80 0f 10 00       	mov    $0x100f80,%eax
  101242:	68 ff 00 00 00       	push   $0xff
  101247:	52                   	push   %edx
  101248:	50                   	push   %eax
  101249:	6a 00                	push   $0x0
  10124b:	e8 f3 fe ff ff       	call   101143 <create_task>
  101250:	83 c4 10             	add    $0x10,%esp
  101253:	ba c0 bc 21 00       	mov    $0x21bcc0,%edx
  101258:	b8 80 0f 10 00       	mov    $0x100f80,%eax
  10125d:	68 ff 00 00 00       	push   $0xff
  101262:	52                   	push   %edx
  101263:	50                   	push   %eax
  101264:	6a 00                	push   $0x0
  101266:	e8 d8 fe ff ff       	call   101143 <create_task>
  10126b:	83 c4 10             	add    $0x10,%esp
  10126e:	90                   	nop
  10126f:	c9                   	leave  
  101270:	c3                   	ret    

00101271 <check_task_affairs>:
  101271:	55                   	push   %ebp
  101272:	89 e5                	mov    %esp,%ebp
  101274:	83 ec 08             	sub    $0x8,%esp
  101277:	e8 e9 01 00 00       	call   101465 <check_wakeup>
  10127c:	e8 03 00 00 00       	call   101284 <check_schedule>
  101281:	90                   	nop
  101282:	c9                   	leave  
  101283:	c3                   	ret    

00101284 <check_schedule>:
  101284:	55                   	push   %ebp
  101285:	89 e5                	mov    %esp,%ebp
  101287:	83 ec 08             	sub    $0x8,%esp
  10128a:	a1 a0 dc 20 00       	mov    0x20dca0,%eax
  10128f:	48                   	dec    %eax
  101290:	a3 a0 dc 20 00       	mov    %eax,0x20dca0
  101295:	a1 a0 dc 20 00       	mov    0x20dca0,%eax
  10129a:	85 c0                	test   %eax,%eax
  10129c:	75 0d                	jne    1012ab <check_schedule+0x27>
  10129e:	83 ec 0c             	sub    $0xc,%esp
  1012a1:	6a 00                	push   $0x0
  1012a3:	e8 06 00 00 00       	call   1012ae <schedule>
  1012a8:	83 c4 10             	add    $0x10,%esp
  1012ab:	90                   	nop
  1012ac:	c9                   	leave  
  1012ad:	c3                   	ret    

001012ae <schedule>:
  1012ae:	55                   	push   %ebp
  1012af:	89 e5                	mov    %esp,%ebp
  1012b1:	83 ec 18             	sub    $0x18,%esp
  1012b4:	c7 05 a0 dc 20 00 64 	movl   $0x64,0x20dca0
  1012bb:	00 00 00 
  1012be:	83 ec 0c             	sub    $0xc,%esp
  1012c1:	68 a6 dc 20 00       	push   $0x20dca6
  1012c6:	e8 1a 08 00 00       	call   101ae5 <pid_dequeue>
  1012cb:	83 c4 10             	add    $0x10,%esp
  1012ce:	66 89 45 f6          	mov    %ax,-0xa(%ebp)
  1012d2:	66 83 7d f6 ff       	cmpw   $0xffff,-0xa(%ebp)
  1012d7:	75 12                	jne    1012eb <schedule+0x3d>
  1012d9:	83 ec 0c             	sub    $0xc,%esp
  1012dc:	68 40 42 10 00       	push   $0x104240
  1012e1:	e8 9b f7 ff ff       	call   100a81 <printf>
  1012e6:	83 c4 10             	add    $0x10,%esp
  1012e9:	eb ee                	jmp    1012d9 <schedule+0x2b>
  1012eb:	0f b7 45 f6          	movzwl -0xa(%ebp),%eax
  1012ef:	83 ec 08             	sub    $0x8,%esp
  1012f2:	ff 75 08             	pushl  0x8(%ebp)
  1012f5:	50                   	push   %eax
  1012f6:	e8 06 00 00 00       	call   101301 <switch_to>
  1012fb:	83 c4 10             	add    $0x10,%esp
  1012fe:	90                   	nop
  1012ff:	c9                   	leave  
  101300:	c3                   	ret    

00101301 <switch_to>:
  101301:	55                   	push   %ebp
  101302:	89 e5                	mov    %esp,%ebp
  101304:	83 ec 18             	sub    $0x18,%esp
  101307:	8b 45 08             	mov    0x8(%ebp),%eax
  10130a:	66 89 45 f4          	mov    %ax,-0xc(%ebp)
  10130e:	66 83 7d f4 ff       	cmpw   $0xffff,-0xc(%ebp)
  101313:	75 12                	jne    101327 <switch_to+0x26>
  101315:	83 ec 0c             	sub    $0xc,%esp
  101318:	68 64 42 10 00       	push   $0x104264
  10131d:	e8 5f f7 ff ff       	call   100a81 <printf>
  101322:	83 c4 10             	add    $0x10,%esp
  101325:	eb ee                	jmp    101315 <switch_to+0x14>
  101327:	a1 a4 dc 20 00       	mov    0x20dca4,%eax
  10132c:	66 39 45 f4          	cmp    %ax,-0xc(%ebp)
  101330:	74 75                	je     1013a7 <switch_to+0xa6>
  101332:	a1 a4 dc 20 00       	mov    0x20dca4,%eax
  101337:	66 83 f8 ff          	cmp    $0xffff,%ax
  10133b:	74 58                	je     101395 <switch_to+0x94>
  10133d:	83 7d 0c 00          	cmpl   $0x0,0xc(%ebp)
  101341:	75 18                	jne    10135b <switch_to+0x5a>
  101343:	a1 a4 dc 20 00       	mov    0x20dca4,%eax
  101348:	0f b7 c0             	movzwl %ax,%eax
  10134b:	83 ec 08             	sub    $0x8,%esp
  10134e:	6a 00                	push   $0x0
  101350:	50                   	push   %eax
  101351:	e8 1e fe ff ff       	call   101174 <set_task_state>
  101356:	83 c4 10             	add    $0x10,%esp
  101359:	eb 3a                	jmp    101395 <switch_to+0x94>
  10135b:	83 7d 0c 02          	cmpl   $0x2,0xc(%ebp)
  10135f:	75 18                	jne    101379 <switch_to+0x78>
  101361:	a1 a4 dc 20 00       	mov    0x20dca4,%eax
  101366:	0f b7 c0             	movzwl %ax,%eax
  101369:	83 ec 08             	sub    $0x8,%esp
  10136c:	6a 03                	push   $0x3
  10136e:	50                   	push   %eax
  10136f:	e8 00 fe ff ff       	call   101174 <set_task_state>
  101374:	83 c4 10             	add    $0x10,%esp
  101377:	eb 1c                	jmp    101395 <switch_to+0x94>
  101379:	83 7d 0c 03          	cmpl   $0x3,0xc(%ebp)
  10137d:	75 16                	jne    101395 <switch_to+0x94>
  10137f:	a1 a4 dc 20 00       	mov    0x20dca4,%eax
  101384:	0f b7 c0             	movzwl %ax,%eax
  101387:	83 ec 08             	sub    $0x8,%esp
  10138a:	6a 02                	push   $0x2
  10138c:	50                   	push   %eax
  10138d:	e8 e2 fd ff ff       	call   101174 <set_task_state>
  101392:	83 c4 10             	add    $0x10,%esp
  101395:	0f b7 45 f4          	movzwl -0xc(%ebp),%eax
  101399:	83 ec 08             	sub    $0x8,%esp
  10139c:	6a 01                	push   $0x1
  10139e:	50                   	push   %eax
  10139f:	e8 d0 fd ff ff       	call   101174 <set_task_state>
  1013a4:	83 c4 10             	add    $0x10,%esp
  1013a7:	90                   	nop
  1013a8:	c9                   	leave  
  1013a9:	c3                   	ret    

001013aa <task_manager_init>:
  1013aa:	55                   	push   %ebp
  1013ab:	89 e5                	mov    %esp,%ebp
  1013ad:	83 ec 08             	sub    $0x8,%esp
  1013b0:	8b 45 08             	mov    0x8(%ebp),%eax
  1013b3:	05 06 00 0f 00       	add    $0xf0006,%eax
  1013b8:	83 ec 0c             	sub    $0xc,%esp
  1013bb:	50                   	push   %eax
  1013bc:	e8 97 06 00 00       	call   101a58 <pid_queue_init>
  1013c1:	83 c4 10             	add    $0x10,%esp
  1013c4:	8b 45 08             	mov    0x8(%ebp),%eax
  1013c7:	05 0a 40 0f 00       	add    $0xf400a,%eax
  1013cc:	83 ec 0c             	sub    $0xc,%esp
  1013cf:	50                   	push   %eax
  1013d0:	e8 83 06 00 00       	call   101a58 <pid_queue_init>
  1013d5:	83 c4 10             	add    $0x10,%esp
  1013d8:	8b 45 08             	mov    0x8(%ebp),%eax
  1013db:	66 c7 80 04 00 0f 00 	movw   $0xffff,0xf0004(%eax)
  1013e2:	ff ff 
  1013e4:	8b 45 08             	mov    0x8(%ebp),%eax
  1013e7:	c7 80 00 00 0f 00 64 	movl   $0x64,0xf0000(%eax)
  1013ee:	00 00 00 
  1013f1:	90                   	nop
  1013f2:	c9                   	leave  
  1013f3:	c3                   	ret    

001013f4 <sys_sleep>:
  1013f4:	55                   	push   %ebp
  1013f5:	89 e5                	mov    %esp,%ebp
  1013f7:	83 ec 08             	sub    $0x8,%esp
  1013fa:	a1 a4 dc 20 00       	mov    0x20dca4,%eax
  1013ff:	0f b7 d0             	movzwl %ax,%edx
  101402:	89 d0                	mov    %edx,%eax
  101404:	01 c0                	add    %eax,%eax
  101406:	01 d0                	add    %edx,%eax
  101408:	8d 14 85 00 00 00 00 	lea    0x0(,%eax,4),%edx
  10140f:	01 d0                	add    %edx,%eax
  101411:	c1 e0 03             	shl    $0x3,%eax
  101414:	8d 90 10 dd 11 00    	lea    0x11dd10(%eax),%edx
  10141a:	8b 45 08             	mov    0x8(%ebp),%eax
  10141d:	89 02                	mov    %eax,(%edx)
  10141f:	83 ec 0c             	sub    $0xc,%esp
  101422:	6a 02                	push   $0x2
  101424:	e8 85 fe ff ff       	call   1012ae <schedule>
  101429:	83 c4 10             	add    $0x10,%esp
  10142c:	90                   	nop
  10142d:	c9                   	leave  
  10142e:	c3                   	ret    

0010142f <sys_exit>:
  10142f:	55                   	push   %ebp
  101430:	89 e5                	mov    %esp,%ebp
  101432:	83 ec 08             	sub    $0x8,%esp
  101435:	a1 a4 dc 20 00       	mov    0x20dca4,%eax
  10143a:	0f b7 c0             	movzwl %ax,%eax
  10143d:	c1 e0 03             	shl    $0x3,%eax
  101440:	05 00 60 10 00       	add    $0x106000,%eax
  101445:	83 ec 04             	sub    $0x4,%esp
  101448:	6a 08                	push   $0x8
  10144a:	6a 00                	push   $0x0
  10144c:	50                   	push   %eax
  10144d:	e8 ca 04 00 00       	call   10191c <memset>
  101452:	83 c4 10             	add    $0x10,%esp
  101455:	83 ec 0c             	sub    $0xc,%esp
  101458:	6a 04                	push   $0x4
  10145a:	e8 4f fe ff ff       	call   1012ae <schedule>
  10145f:	83 c4 10             	add    $0x10,%esp
  101462:	90                   	nop
  101463:	c9                   	leave  
  101464:	c3                   	ret    

00101465 <check_wakeup>:
  101465:	55                   	push   %ebp
  101466:	89 e5                	mov    %esp,%ebp
  101468:	53                   	push   %ebx
  101469:	83 ec 14             	sub    $0x14,%esp
  10146c:	66 a1 ae 5c 21 00    	mov    0x215cae,%ax
  101472:	66 89 45 f6          	mov    %ax,-0xa(%ebp)
  101476:	e9 b4 00 00 00       	jmp    10152f <check_wakeup+0xca>
  10147b:	0f b7 45 f6          	movzwl -0xa(%ebp),%eax
  10147f:	05 00 c0 07 00       	add    $0x7c000,%eax
  101484:	66 8b 84 00 b2 dc 11 	mov    0x11dcb2(%eax,%eax,1),%ax
  10148b:	00 
  10148c:	66 89 45 f4          	mov    %ax,-0xc(%ebp)
  101490:	0f b7 55 f4          	movzwl -0xc(%ebp),%edx
  101494:	89 d0                	mov    %edx,%eax
  101496:	01 c0                	add    %eax,%eax
  101498:	01 d0                	add    %edx,%eax
  10149a:	8d 0c 85 00 00 00 00 	lea    0x0(,%eax,4),%ecx
  1014a1:	01 c8                	add    %ecx,%eax
  1014a3:	c1 e0 03             	shl    $0x3,%eax
  1014a6:	05 10 dd 11 00       	add    $0x11dd10,%eax
  1014ab:	8b 00                	mov    (%eax),%eax
  1014ad:	8d 48 ff             	lea    -0x1(%eax),%ecx
  1014b0:	89 d0                	mov    %edx,%eax
  1014b2:	01 c0                	add    %eax,%eax
  1014b4:	01 d0                	add    %edx,%eax
  1014b6:	8d 1c 85 00 00 00 00 	lea    0x0(,%eax,4),%ebx
  1014bd:	01 d8                	add    %ebx,%eax
  1014bf:	c1 e0 03             	shl    $0x3,%eax
  1014c2:	05 10 dd 11 00       	add    $0x11dd10,%eax
  1014c7:	89 08                	mov    %ecx,(%eax)
  1014c9:	89 d0                	mov    %edx,%eax
  1014cb:	01 c0                	add    %eax,%eax
  1014cd:	01 d0                	add    %edx,%eax
  1014cf:	8d 14 85 00 00 00 00 	lea    0x0(,%eax,4),%edx
  1014d6:	01 d0                	add    %edx,%eax
  1014d8:	c1 e0 03             	shl    $0x3,%eax
  1014db:	05 10 dd 11 00       	add    $0x11dd10,%eax
  1014e0:	8b 00                	mov    (%eax),%eax
  1014e2:	85 c0                	test   %eax,%eax
  1014e4:	75 30                	jne    101516 <check_wakeup+0xb1>
  1014e6:	0f b7 45 f6          	movzwl -0xa(%ebp),%eax
  1014ea:	83 ec 08             	sub    $0x8,%esp
  1014ed:	50                   	push   %eax
  1014ee:	68 ae 5c 21 00       	push   $0x215cae
  1014f3:	e8 a2 06 00 00       	call   101b9a <pid_queue_delete>
  1014f8:	83 c4 10             	add    $0x10,%esp
  1014fb:	0f b7 45 f4          	movzwl -0xc(%ebp),%eax
  1014ff:	83 ec 08             	sub    $0x8,%esp
  101502:	6a 00                	push   $0x0
  101504:	50                   	push   %eax
  101505:	e8 6a fc ff ff       	call   101174 <set_task_state>
  10150a:	83 c4 10             	add    $0x10,%esp
  10150d:	66 8b 45 f6          	mov    -0xa(%ebp),%ax
  101511:	48                   	dec    %eax
  101512:	66 89 45 f6          	mov    %ax,-0xa(%ebp)
  101516:	0f b7 45 f6          	movzwl -0xa(%ebp),%eax
  10151a:	40                   	inc    %eax
  10151b:	25 ff 1f 00 80       	and    $0x80001fff,%eax
  101520:	85 c0                	test   %eax,%eax
  101522:	79 07                	jns    10152b <check_wakeup+0xc6>
  101524:	48                   	dec    %eax
  101525:	0d 00 e0 ff ff       	or     $0xffffe000,%eax
  10152a:	40                   	inc    %eax
  10152b:	66 89 45 f6          	mov    %ax,-0xa(%ebp)
  10152f:	a1 b0 5c 21 00       	mov    0x215cb0,%eax
  101534:	66 39 45 f6          	cmp    %ax,-0xa(%ebp)
  101538:	0f 85 3d ff ff ff    	jne    10147b <check_wakeup+0x16>
  10153e:	90                   	nop
  10153f:	8b 5d fc             	mov    -0x4(%ebp),%ebx
  101542:	c9                   	leave  
  101543:	c3                   	ret    

00101544 <wait>:
  101544:	55                   	push   %ebp
  101545:	89 e5                	mov    %esp,%ebp
  101547:	83 ec 08             	sub    $0x8,%esp
  10154a:	8b 45 08             	mov    0x8(%ebp),%eax
  10154d:	66 8b 00             	mov    (%eax),%ax
  101550:	48                   	dec    %eax
  101551:	8b 55 08             	mov    0x8(%ebp),%edx
  101554:	66 89 02             	mov    %ax,(%edx)
  101557:	8b 45 08             	mov    0x8(%ebp),%eax
  10155a:	66 8b 00             	mov    (%eax),%ax
  10155d:	66 85 c0             	test   %ax,%ax
  101560:	79 28                	jns    10158a <wait+0x46>
  101562:	a1 a4 dc 20 00       	mov    0x20dca4,%eax
  101567:	0f b7 c0             	movzwl %ax,%eax
  10156a:	8b 55 08             	mov    0x8(%ebp),%edx
  10156d:	83 c2 02             	add    $0x2,%edx
  101570:	83 ec 08             	sub    $0x8,%esp
  101573:	50                   	push   %eax
  101574:	52                   	push   %edx
  101575:	e8 24 05 00 00       	call   101a9e <pid_enqueue>
  10157a:	83 c4 10             	add    $0x10,%esp
  10157d:	83 ec 0c             	sub    $0xc,%esp
  101580:	6a 03                	push   $0x3
  101582:	e8 27 fd ff ff       	call   1012ae <schedule>
  101587:	83 c4 10             	add    $0x10,%esp
  10158a:	90                   	nop
  10158b:	c9                   	leave  
  10158c:	c3                   	ret    

0010158d <signal>:
  10158d:	55                   	push   %ebp
  10158e:	89 e5                	mov    %esp,%ebp
  101590:	83 ec 18             	sub    $0x18,%esp
  101593:	8b 45 08             	mov    0x8(%ebp),%eax
  101596:	66 8b 00             	mov    (%eax),%ax
  101599:	40                   	inc    %eax
  10159a:	8b 55 08             	mov    0x8(%ebp),%edx
  10159d:	66 89 02             	mov    %ax,(%edx)
  1015a0:	8b 45 08             	mov    0x8(%ebp),%eax
  1015a3:	83 c0 02             	add    $0x2,%eax
  1015a6:	83 ec 0c             	sub    $0xc,%esp
  1015a9:	50                   	push   %eax
  1015aa:	e8 36 05 00 00       	call   101ae5 <pid_dequeue>
  1015af:	83 c4 10             	add    $0x10,%esp
  1015b2:	66 89 45 f6          	mov    %ax,-0xa(%ebp)
  1015b6:	66 83 7d f6 ff       	cmpw   $0xffff,-0xa(%ebp)
  1015bb:	74 59                	je     101616 <signal+0x89>
  1015bd:	0f b7 45 f6          	movzwl -0xa(%ebp),%eax
  1015c1:	83 ec 08             	sub    $0x8,%esp
  1015c4:	50                   	push   %eax
  1015c5:	68 aa 1c 21 00       	push   $0x211caa
  1015ca:	e8 6e 05 00 00       	call   101b3d <pid_queue_find>
  1015cf:	83 c4 10             	add    $0x10,%esp
  1015d2:	66 89 45 f4          	mov    %ax,-0xc(%ebp)
  1015d6:	0f b7 45 f4          	movzwl -0xc(%ebp),%eax
  1015da:	83 ec 08             	sub    $0x8,%esp
  1015dd:	50                   	push   %eax
  1015de:	68 aa 1c 21 00       	push   $0x211caa
  1015e3:	e8 b2 05 00 00       	call   101b9a <pid_queue_delete>
  1015e8:	83 c4 10             	add    $0x10,%esp
  1015eb:	66 83 7d f4 ff       	cmpw   $0xffff,-0xc(%ebp)
  1015f0:	75 12                	jne    101604 <signal+0x77>
  1015f2:	83 ec 0c             	sub    $0xc,%esp
  1015f5:	68 84 42 10 00       	push   $0x104284
  1015fa:	e8 82 f4 ff ff       	call   100a81 <printf>
  1015ff:	83 c4 10             	add    $0x10,%esp
  101602:	eb ee                	jmp    1015f2 <signal+0x65>
  101604:	0f b7 45 f6          	movzwl -0xa(%ebp),%eax
  101608:	83 ec 08             	sub    $0x8,%esp
  10160b:	6a 00                	push   $0x0
  10160d:	50                   	push   %eax
  10160e:	e8 61 fb ff ff       	call   101174 <set_task_state>
  101613:	83 c4 10             	add    $0x10,%esp
  101616:	90                   	nop
  101617:	c9                   	leave  
  101618:	c3                   	ret    

00101619 <semaphore_init>:
  101619:	55                   	push   %ebp
  10161a:	89 e5                	mov    %esp,%ebp
  10161c:	83 ec 18             	sub    $0x18,%esp
  10161f:	8b 45 0c             	mov    0xc(%ebp),%eax
  101622:	66 89 45 f4          	mov    %ax,-0xc(%ebp)
  101626:	8b 55 08             	mov    0x8(%ebp),%edx
  101629:	8b 45 f4             	mov    -0xc(%ebp),%eax
  10162c:	66 89 02             	mov    %ax,(%edx)
  10162f:	8b 45 08             	mov    0x8(%ebp),%eax
  101632:	83 c0 02             	add    $0x2,%eax
  101635:	83 ec 0c             	sub    $0xc,%esp
  101638:	50                   	push   %eax
  101639:	e8 1a 04 00 00       	call   101a58 <pid_queue_init>
  10163e:	83 c4 10             	add    $0x10,%esp
  101641:	90                   	nop
  101642:	c9                   	leave  
  101643:	c3                   	ret    

00101644 <strlen>:
  101644:	55                   	push   %ebp
  101645:	89 e5                	mov    %esp,%ebp
  101647:	83 ec 10             	sub    $0x10,%esp
  10164a:	c7 45 fc 00 00 00 00 	movl   $0x0,-0x4(%ebp)
  101651:	8b 45 08             	mov    0x8(%ebp),%eax
  101654:	89 45 f8             	mov    %eax,-0x8(%ebp)
  101657:	eb 06                	jmp    10165f <strlen+0x1b>
  101659:	ff 45 f8             	incl   -0x8(%ebp)
  10165c:	ff 45 fc             	incl   -0x4(%ebp)
  10165f:	8b 45 f8             	mov    -0x8(%ebp),%eax
  101662:	8a 00                	mov    (%eax),%al
  101664:	84 c0                	test   %al,%al
  101666:	75 f1                	jne    101659 <strlen+0x15>
  101668:	8b 45 fc             	mov    -0x4(%ebp),%eax
  10166b:	c9                   	leave  
  10166c:	c3                   	ret    

0010166d <strcpy>:
  10166d:	55                   	push   %ebp
  10166e:	89 e5                	mov    %esp,%ebp
  101670:	83 ec 10             	sub    $0x10,%esp
  101673:	ff 75 0c             	pushl  0xc(%ebp)
  101676:	e8 c9 ff ff ff       	call   101644 <strlen>
  10167b:	83 c4 04             	add    $0x4,%esp
  10167e:	89 45 f8             	mov    %eax,-0x8(%ebp)
  101681:	c7 45 fc 00 00 00 00 	movl   $0x0,-0x4(%ebp)
  101688:	eb 17                	jmp    1016a1 <strcpy+0x34>
  10168a:	8b 55 fc             	mov    -0x4(%ebp),%edx
  10168d:	8b 45 0c             	mov    0xc(%ebp),%eax
  101690:	01 d0                	add    %edx,%eax
  101692:	8b 4d fc             	mov    -0x4(%ebp),%ecx
  101695:	8b 55 08             	mov    0x8(%ebp),%edx
  101698:	01 ca                	add    %ecx,%edx
  10169a:	8a 00                	mov    (%eax),%al
  10169c:	88 02                	mov    %al,(%edx)
  10169e:	ff 45 fc             	incl   -0x4(%ebp)
  1016a1:	8b 45 fc             	mov    -0x4(%ebp),%eax
  1016a4:	3b 45 f8             	cmp    -0x8(%ebp),%eax
  1016a7:	7e e1                	jle    10168a <strcpy+0x1d>
  1016a9:	90                   	nop
  1016aa:	c9                   	leave  
  1016ab:	c3                   	ret    

001016ac <strcmp>:
  1016ac:	55                   	push   %ebp
  1016ad:	89 e5                	mov    %esp,%ebp
  1016af:	53                   	push   %ebx
  1016b0:	83 ec 10             	sub    $0x10,%esp
  1016b3:	ff 75 08             	pushl  0x8(%ebp)
  1016b6:	e8 89 ff ff ff       	call   101644 <strlen>
  1016bb:	83 c4 04             	add    $0x4,%esp
  1016be:	89 c3                	mov    %eax,%ebx
  1016c0:	ff 75 0c             	pushl  0xc(%ebp)
  1016c3:	e8 7c ff ff ff       	call   101644 <strlen>
  1016c8:	83 c4 04             	add    $0x4,%esp
  1016cb:	39 c3                	cmp    %eax,%ebx
  1016cd:	74 07                	je     1016d6 <strcmp+0x2a>
  1016cf:	b8 01 00 00 00       	mov    $0x1,%eax
  1016d4:	eb 46                	jmp    10171c <strcmp+0x70>
  1016d6:	ff 75 08             	pushl  0x8(%ebp)
  1016d9:	e8 66 ff ff ff       	call   101644 <strlen>
  1016de:	83 c4 04             	add    $0x4,%esp
  1016e1:	89 45 f4             	mov    %eax,-0xc(%ebp)
  1016e4:	c7 45 f8 00 00 00 00 	movl   $0x0,-0x8(%ebp)
  1016eb:	eb 22                	jmp    10170f <strcmp+0x63>
  1016ed:	8b 55 f8             	mov    -0x8(%ebp),%edx
  1016f0:	8b 45 08             	mov    0x8(%ebp),%eax
  1016f3:	01 d0                	add    %edx,%eax
  1016f5:	8a 10                	mov    (%eax),%dl
  1016f7:	8b 4d f8             	mov    -0x8(%ebp),%ecx
  1016fa:	8b 45 0c             	mov    0xc(%ebp),%eax
  1016fd:	01 c8                	add    %ecx,%eax
  1016ff:	8a 00                	mov    (%eax),%al
  101701:	38 c2                	cmp    %al,%dl
  101703:	74 07                	je     10170c <strcmp+0x60>
  101705:	b8 01 00 00 00       	mov    $0x1,%eax
  10170a:	eb 10                	jmp    10171c <strcmp+0x70>
  10170c:	ff 45 f8             	incl   -0x8(%ebp)
  10170f:	8b 45 f8             	mov    -0x8(%ebp),%eax
  101712:	3b 45 f4             	cmp    -0xc(%ebp),%eax
  101715:	7c d6                	jl     1016ed <strcmp+0x41>
  101717:	b8 00 00 00 00       	mov    $0x0,%eax
  10171c:	8b 5d fc             	mov    -0x4(%ebp),%ebx
  10171f:	c9                   	leave  
  101720:	c3                   	ret    

00101721 <memcpy>:
  101721:	55                   	push   %ebp
  101722:	89 e5                	mov    %esp,%ebp
  101724:	83 ec 10             	sub    $0x10,%esp
  101727:	c7 45 fc 00 00 00 00 	movl   $0x0,-0x4(%ebp)
  10172e:	eb 17                	jmp    101747 <memcpy+0x26>
  101730:	8b 55 fc             	mov    -0x4(%ebp),%edx
  101733:	8b 45 0c             	mov    0xc(%ebp),%eax
  101736:	01 d0                	add    %edx,%eax
  101738:	8b 4d fc             	mov    -0x4(%ebp),%ecx
  10173b:	8b 55 08             	mov    0x8(%ebp),%edx
  10173e:	01 ca                	add    %ecx,%edx
  101740:	8a 00                	mov    (%eax),%al
  101742:	88 02                	mov    %al,(%edx)
  101744:	ff 45 fc             	incl   -0x4(%ebp)
  101747:	8b 45 fc             	mov    -0x4(%ebp),%eax
  10174a:	39 45 10             	cmp    %eax,0x10(%ebp)
  10174d:	77 e1                	ja     101730 <memcpy+0xf>
  10174f:	90                   	nop
  101750:	c9                   	leave  
  101751:	c3                   	ret    

00101752 <get_parent_dir_name>:
  101752:	55                   	push   %ebp
  101753:	89 e5                	mov    %esp,%ebp
  101755:	83 ec 10             	sub    $0x10,%esp
  101758:	ff 75 08             	pushl  0x8(%ebp)
  10175b:	e8 e4 fe ff ff       	call   101644 <strlen>
  101760:	83 c4 04             	add    $0x4,%esp
  101763:	89 45 f4             	mov    %eax,-0xc(%ebp)
  101766:	83 7d f4 00          	cmpl   $0x0,-0xc(%ebp)
  10176a:	75 08                	jne    101774 <get_parent_dir_name+0x22>
  10176c:	8b 45 0c             	mov    0xc(%ebp),%eax
  10176f:	c6 00 00             	movb   $0x0,(%eax)
  101772:	eb 65                	jmp    1017d9 <get_parent_dir_name+0x87>
  101774:	8b 45 f4             	mov    -0xc(%ebp),%eax
  101777:	48                   	dec    %eax
  101778:	89 45 f0             	mov    %eax,-0x10(%ebp)
  10177b:	c7 45 fc ff ff ff ff 	movl   $0xffffffff,-0x4(%ebp)
  101782:	8b 45 f0             	mov    -0x10(%ebp),%eax
  101785:	48                   	dec    %eax
  101786:	89 45 f8             	mov    %eax,-0x8(%ebp)
  101789:	eb 19                	jmp    1017a4 <get_parent_dir_name+0x52>
  10178b:	8b 55 f8             	mov    -0x8(%ebp),%edx
  10178e:	8b 45 08             	mov    0x8(%ebp),%eax
  101791:	01 d0                	add    %edx,%eax
  101793:	8a 00                	mov    (%eax),%al
  101795:	3c 2f                	cmp    $0x2f,%al
  101797:	75 08                	jne    1017a1 <get_parent_dir_name+0x4f>
  101799:	8b 45 f8             	mov    -0x8(%ebp),%eax
  10179c:	89 45 fc             	mov    %eax,-0x4(%ebp)
  10179f:	eb 09                	jmp    1017aa <get_parent_dir_name+0x58>
  1017a1:	ff 4d f8             	decl   -0x8(%ebp)
  1017a4:	83 7d f8 00          	cmpl   $0x0,-0x8(%ebp)
  1017a8:	79 e1                	jns    10178b <get_parent_dir_name+0x39>
  1017aa:	83 7d fc ff          	cmpl   $0xffffffff,-0x4(%ebp)
  1017ae:	75 08                	jne    1017b8 <get_parent_dir_name+0x66>
  1017b0:	8b 45 0c             	mov    0xc(%ebp),%eax
  1017b3:	c6 00 00             	movb   $0x0,(%eax)
  1017b6:	eb 21                	jmp    1017d9 <get_parent_dir_name+0x87>
  1017b8:	8b 45 fc             	mov    -0x4(%ebp),%eax
  1017bb:	40                   	inc    %eax
  1017bc:	50                   	push   %eax
  1017bd:	ff 75 08             	pushl  0x8(%ebp)
  1017c0:	ff 75 0c             	pushl  0xc(%ebp)
  1017c3:	e8 59 ff ff ff       	call   101721 <memcpy>
  1017c8:	83 c4 0c             	add    $0xc,%esp
  1017cb:	8b 45 fc             	mov    -0x4(%ebp),%eax
  1017ce:	8d 50 01             	lea    0x1(%eax),%edx
  1017d1:	8b 45 0c             	mov    0xc(%ebp),%eax
  1017d4:	01 d0                	add    %edx,%eax
  1017d6:	c6 00 00             	movb   $0x0,(%eax)
  1017d9:	c9                   	leave  
  1017da:	c3                   	ret    

001017db <reverse>:
  1017db:	55                   	push   %ebp
  1017dc:	89 e5                	mov    %esp,%ebp
  1017de:	83 ec 10             	sub    $0x10,%esp
  1017e1:	c7 45 fc 00 00 00 00 	movl   $0x0,-0x4(%ebp)
  1017e8:	8b 45 0c             	mov    0xc(%ebp),%eax
  1017eb:	48                   	dec    %eax
  1017ec:	89 45 f8             	mov    %eax,-0x8(%ebp)
  1017ef:	eb 34                	jmp    101825 <reverse+0x4a>
  1017f1:	8b 55 fc             	mov    -0x4(%ebp),%edx
  1017f4:	8b 45 08             	mov    0x8(%ebp),%eax
  1017f7:	01 d0                	add    %edx,%eax
  1017f9:	8a 00                	mov    (%eax),%al
  1017fb:	88 45 f7             	mov    %al,-0x9(%ebp)
  1017fe:	8b 55 f8             	mov    -0x8(%ebp),%edx
  101801:	8b 45 08             	mov    0x8(%ebp),%eax
  101804:	01 d0                	add    %edx,%eax
  101806:	8b 4d fc             	mov    -0x4(%ebp),%ecx
  101809:	8b 55 08             	mov    0x8(%ebp),%edx
  10180c:	01 ca                	add    %ecx,%edx
  10180e:	8a 00                	mov    (%eax),%al
  101810:	88 02                	mov    %al,(%edx)
  101812:	8b 55 f8             	mov    -0x8(%ebp),%edx
  101815:	8b 45 08             	mov    0x8(%ebp),%eax
  101818:	01 c2                	add    %eax,%edx
  10181a:	8a 45 f7             	mov    -0x9(%ebp),%al
  10181d:	88 02                	mov    %al,(%edx)
  10181f:	ff 45 fc             	incl   -0x4(%ebp)
  101822:	ff 4d f8             	decl   -0x8(%ebp)
  101825:	8b 45 fc             	mov    -0x4(%ebp),%eax
  101828:	3b 45 f8             	cmp    -0x8(%ebp),%eax
  10182b:	7c c4                	jl     1017f1 <reverse+0x16>
  10182d:	90                   	nop
  10182e:	c9                   	leave  
  10182f:	c3                   	ret    

00101830 <itoa>:
  101830:	55                   	push   %ebp
  101831:	89 e5                	mov    %esp,%ebp
  101833:	83 ec 34             	sub    $0x34,%esp
  101836:	8b 45 0c             	mov    0xc(%ebp),%eax
  101839:	88 45 cc             	mov    %al,-0x34(%ebp)
  10183c:	83 7d 08 00          	cmpl   $0x0,0x8(%ebp)
  101840:	75 12                	jne    101854 <itoa+0x24>
  101842:	8b 45 10             	mov    0x10(%ebp),%eax
  101845:	c6 00 30             	movb   $0x30,(%eax)
  101848:	8b 45 10             	mov    0x10(%ebp),%eax
  10184b:	40                   	inc    %eax
  10184c:	c6 00 00             	movb   $0x0,(%eax)
  10184f:	e9 c6 00 00 00       	jmp    10191a <itoa+0xea>
  101854:	c7 45 fc 00 00 00 00 	movl   $0x0,-0x4(%ebp)
  10185b:	c7 45 f8 00 00 00 00 	movl   $0x0,-0x8(%ebp)
  101862:	83 7d 08 00          	cmpl   $0x0,0x8(%ebp)
  101866:	79 4b                	jns    1018b3 <itoa+0x83>
  101868:	c7 45 f8 01 00 00 00 	movl   $0x1,-0x8(%ebp)
  10186f:	f7 5d 08             	negl   0x8(%ebp)
  101872:	eb 3f                	jmp    1018b3 <itoa+0x83>
  101874:	0f b6 4d cc          	movzbl -0x34(%ebp),%ecx
  101878:	8b 45 08             	mov    0x8(%ebp),%eax
  10187b:	99                   	cltd   
  10187c:	f7 f9                	idiv   %ecx
  10187e:	89 55 f0             	mov    %edx,-0x10(%ebp)
  101881:	83 7d f0 09          	cmpl   $0x9,-0x10(%ebp)
  101885:	7e 0a                	jle    101891 <itoa+0x61>
  101887:	8b 45 f0             	mov    -0x10(%ebp),%eax
  10188a:	83 c0 57             	add    $0x57,%eax
  10188d:	88 c2                	mov    %al,%dl
  10188f:	eb 08                	jmp    101899 <itoa+0x69>
  101891:	8b 45 f0             	mov    -0x10(%ebp),%eax
  101894:	83 c0 30             	add    $0x30,%eax
  101897:	88 c2                	mov    %al,%dl
  101899:	8b 45 fc             	mov    -0x4(%ebp),%eax
  10189c:	8d 48 01             	lea    0x1(%eax),%ecx
  10189f:	89 4d fc             	mov    %ecx,-0x4(%ebp)
  1018a2:	88 54 05 d0          	mov    %dl,-0x30(%ebp,%eax,1)
  1018a6:	0f b6 4d cc          	movzbl -0x34(%ebp),%ecx
  1018aa:	8b 45 08             	mov    0x8(%ebp),%eax
  1018ad:	99                   	cltd   
  1018ae:	f7 f9                	idiv   %ecx
  1018b0:	89 45 08             	mov    %eax,0x8(%ebp)
  1018b3:	83 7d 08 00          	cmpl   $0x0,0x8(%ebp)
  1018b7:	75 bb                	jne    101874 <itoa+0x44>
  1018b9:	83 7d f8 00          	cmpl   $0x0,-0x8(%ebp)
  1018bd:	74 0e                	je     1018cd <itoa+0x9d>
  1018bf:	8b 45 fc             	mov    -0x4(%ebp),%eax
  1018c2:	8d 50 01             	lea    0x1(%eax),%edx
  1018c5:	89 55 fc             	mov    %edx,-0x4(%ebp)
  1018c8:	c6 44 05 d0 2d       	movb   $0x2d,-0x30(%ebp,%eax,1)
  1018cd:	8d 55 d0             	lea    -0x30(%ebp),%edx
  1018d0:	8b 45 fc             	mov    -0x4(%ebp),%eax
  1018d3:	01 d0                	add    %edx,%eax
  1018d5:	c6 00 00             	movb   $0x0,(%eax)
  1018d8:	ff 75 fc             	pushl  -0x4(%ebp)
  1018db:	8d 45 d0             	lea    -0x30(%ebp),%eax
  1018de:	50                   	push   %eax
  1018df:	e8 f7 fe ff ff       	call   1017db <reverse>
  1018e4:	83 c4 08             	add    $0x8,%esp
  1018e7:	c7 45 f4 00 00 00 00 	movl   $0x0,-0xc(%ebp)
  1018ee:	eb 17                	jmp    101907 <itoa+0xd7>
  1018f0:	8b 55 f4             	mov    -0xc(%ebp),%edx
  1018f3:	8b 45 10             	mov    0x10(%ebp),%eax
  1018f6:	01 c2                	add    %eax,%edx
  1018f8:	8d 4d d0             	lea    -0x30(%ebp),%ecx
  1018fb:	8b 45 f4             	mov    -0xc(%ebp),%eax
  1018fe:	01 c8                	add    %ecx,%eax
  101900:	8a 00                	mov    (%eax),%al
  101902:	88 02                	mov    %al,(%edx)
  101904:	ff 45 f4             	incl   -0xc(%ebp)
  101907:	8b 45 f4             	mov    -0xc(%ebp),%eax
  10190a:	3b 45 fc             	cmp    -0x4(%ebp),%eax
  10190d:	7c e1                	jl     1018f0 <itoa+0xc0>
  10190f:	8b 55 fc             	mov    -0x4(%ebp),%edx
  101912:	8b 45 10             	mov    0x10(%ebp),%eax
  101915:	01 d0                	add    %edx,%eax
  101917:	c6 00 00             	movb   $0x0,(%eax)
  10191a:	c9                   	leave  
  10191b:	c3                   	ret    

0010191c <memset>:
  10191c:	55                   	push   %ebp
  10191d:	89 e5                	mov    %esp,%ebp
  10191f:	83 ec 10             	sub    $0x10,%esp
  101922:	c7 45 fc 00 00 00 00 	movl   $0x0,-0x4(%ebp)
  101929:	eb 10                	jmp    10193b <memset+0x1f>
  10192b:	8b 55 08             	mov    0x8(%ebp),%edx
  10192e:	8b 45 fc             	mov    -0x4(%ebp),%eax
  101931:	01 d0                	add    %edx,%eax
  101933:	8b 55 0c             	mov    0xc(%ebp),%edx
  101936:	88 10                	mov    %dl,(%eax)
  101938:	ff 45 fc             	incl   -0x4(%ebp)
  10193b:	8b 45 fc             	mov    -0x4(%ebp),%eax
  10193e:	3b 45 10             	cmp    0x10(%ebp),%eax
  101941:	72 e8                	jb     10192b <memset+0xf>
  101943:	90                   	nop
  101944:	c9                   	leave  
  101945:	c3                   	ret    

00101946 <get_itoa>:
  101946:	55                   	push   %ebp
  101947:	89 e5                	mov    %esp,%ebp
  101949:	83 ec 04             	sub    $0x4,%esp
  10194c:	8b 45 0c             	mov    0xc(%ebp),%eax
  10194f:	88 45 fc             	mov    %al,-0x4(%ebp)
  101952:	0f b6 55 fc          	movzbl -0x4(%ebp),%edx
  101956:	8b 45 08             	mov    0x8(%ebp),%eax
  101959:	68 60 74 11 00       	push   $0x117460
  10195e:	52                   	push   %edx
  10195f:	50                   	push   %eax
  101960:	e8 cb fe ff ff       	call   101830 <itoa>
  101965:	83 c4 0c             	add    $0xc,%esp
  101968:	b8 60 74 11 00       	mov    $0x117460,%eax
  10196d:	c9                   	leave  
  10196e:	c3                   	ret    

0010196f <testbits>:
  10196f:	55                   	push   %ebp
  101970:	89 e5                	mov    %esp,%ebp
  101972:	53                   	push   %ebx
  101973:	83 ec 08             	sub    $0x8,%esp
  101976:	8b 55 0c             	mov    0xc(%ebp),%edx
  101979:	8b 45 10             	mov    0x10(%ebp),%eax
  10197c:	88 55 f8             	mov    %dl,-0x8(%ebp)
  10197f:	88 45 f4             	mov    %al,-0xc(%ebp)
  101982:	0f b6 45 f8          	movzbl -0x8(%ebp),%eax
  101986:	8b 55 08             	mov    0x8(%ebp),%edx
  101989:	89 d3                	mov    %edx,%ebx
  10198b:	88 c1                	mov    %al,%cl
  10198d:	d3 eb                	shr    %cl,%ebx
  10198f:	0f b6 55 f4          	movzbl -0xc(%ebp),%edx
  101993:	0f b6 45 f8          	movzbl -0x8(%ebp),%eax
  101997:	29 c2                	sub    %eax,%edx
  101999:	89 d0                	mov    %edx,%eax
  10199b:	ba 01 00 00 00       	mov    $0x1,%edx
  1019a0:	88 c1                	mov    %al,%cl
  1019a2:	d3 e2                	shl    %cl,%edx
  1019a4:	89 d0                	mov    %edx,%eax
  1019a6:	48                   	dec    %eax
  1019a7:	21 d8                	and    %ebx,%eax
  1019a9:	83 c4 08             	add    $0x8,%esp
  1019ac:	5b                   	pop    %ebx
  1019ad:	5d                   	pop    %ebp
  1019ae:	c3                   	ret    

001019af <testbit>:
  1019af:	55                   	push   %ebp
  1019b0:	89 e5                	mov    %esp,%ebp
  1019b2:	83 ec 04             	sub    $0x4,%esp
  1019b5:	8b 45 0c             	mov    0xc(%ebp),%eax
  1019b8:	88 45 fc             	mov    %al,-0x4(%ebp)
  1019bb:	8a 45 fc             	mov    -0x4(%ebp),%al
  1019be:	40                   	inc    %eax
  1019bf:	0f b6 d0             	movzbl %al,%edx
  1019c2:	0f b6 45 fc          	movzbl -0x4(%ebp),%eax
  1019c6:	52                   	push   %edx
  1019c7:	50                   	push   %eax
  1019c8:	ff 75 08             	pushl  0x8(%ebp)
  1019cb:	e8 9f ff ff ff       	call   10196f <testbits>
  1019d0:	83 c4 0c             	add    $0xc,%esp
  1019d3:	85 c0                	test   %eax,%eax
  1019d5:	0f 95 c0             	setne  %al
  1019d8:	c9                   	leave  
  1019d9:	c3                   	ret    

001019da <setbit>:
  1019da:	55                   	push   %ebp
  1019db:	89 e5                	mov    %esp,%ebp
  1019dd:	53                   	push   %ebx
  1019de:	83 ec 04             	sub    $0x4,%esp
  1019e1:	8b 45 10             	mov    0x10(%ebp),%eax
  1019e4:	88 45 f8             	mov    %al,-0x8(%ebp)
  1019e7:	80 7d f8 00          	cmpb   $0x0,-0x8(%ebp)
  1019eb:	74 1c                	je     101a09 <setbit+0x2f>
  1019ed:	8b 45 08             	mov    0x8(%ebp),%eax
  1019f0:	8b 10                	mov    (%eax),%edx
  1019f2:	8b 45 0c             	mov    0xc(%ebp),%eax
  1019f5:	bb 01 00 00 00       	mov    $0x1,%ebx
  1019fa:	88 c1                	mov    %al,%cl
  1019fc:	d3 e3                	shl    %cl,%ebx
  1019fe:	89 d8                	mov    %ebx,%eax
  101a00:	09 c2                	or     %eax,%edx
  101a02:	8b 45 08             	mov    0x8(%ebp),%eax
  101a05:	89 10                	mov    %edx,(%eax)
  101a07:	eb 1c                	jmp    101a25 <setbit+0x4b>
  101a09:	8b 45 08             	mov    0x8(%ebp),%eax
  101a0c:	8b 10                	mov    (%eax),%edx
  101a0e:	8b 45 0c             	mov    0xc(%ebp),%eax
  101a11:	bb 01 00 00 00       	mov    $0x1,%ebx
  101a16:	88 c1                	mov    %al,%cl
  101a18:	d3 e3                	shl    %cl,%ebx
  101a1a:	89 d8                	mov    %ebx,%eax
  101a1c:	f7 d0                	not    %eax
  101a1e:	21 c2                	and    %eax,%edx
  101a20:	8b 45 08             	mov    0x8(%ebp),%eax
  101a23:	89 10                	mov    %edx,(%eax)
  101a25:	90                   	nop
  101a26:	83 c4 04             	add    $0x4,%esp
  101a29:	5b                   	pop    %ebx
  101a2a:	5d                   	pop    %ebp
  101a2b:	c3                   	ret    

00101a2c <pid_queue_length>:
  101a2c:	55                   	push   %ebp
  101a2d:	89 e5                	mov    %esp,%ebp
  101a2f:	8b 45 08             	mov    0x8(%ebp),%eax
  101a32:	66 8b 40 02          	mov    0x2(%eax),%ax
  101a36:	0f b7 d0             	movzwl %ax,%edx
  101a39:	8b 45 08             	mov    0x8(%ebp),%eax
  101a3c:	66 8b 00             	mov    (%eax),%ax
  101a3f:	0f b7 c0             	movzwl %ax,%eax
  101a42:	29 c2                	sub    %eax,%edx
  101a44:	89 d0                	mov    %edx,%eax
  101a46:	25 ff 1f 00 80       	and    $0x80001fff,%eax
  101a4b:	85 c0                	test   %eax,%eax
  101a4d:	79 07                	jns    101a56 <pid_queue_length+0x2a>
  101a4f:	48                   	dec    %eax
  101a50:	0d 00 e0 ff ff       	or     $0xffffe000,%eax
  101a55:	40                   	inc    %eax
  101a56:	5d                   	pop    %ebp
  101a57:	c3                   	ret    

00101a58 <pid_queue_init>:
  101a58:	55                   	push   %ebp
  101a59:	89 e5                	mov    %esp,%ebp
  101a5b:	83 ec 10             	sub    $0x10,%esp
  101a5e:	66 c7 45 fe 00 00    	movw   $0x0,-0x2(%ebp)
  101a64:	eb 17                	jmp    101a7d <pid_queue_init+0x25>
  101a66:	0f b7 55 fe          	movzwl -0x2(%ebp),%edx
  101a6a:	8b 45 08             	mov    0x8(%ebp),%eax
  101a6d:	66 c7 44 50 04 ff ff 	movw   $0xffff,0x4(%eax,%edx,2)
  101a74:	66 8b 45 fe          	mov    -0x2(%ebp),%ax
  101a78:	40                   	inc    %eax
  101a79:	66 89 45 fe          	mov    %ax,-0x2(%ebp)
  101a7d:	66 81 7d fe ff 1f    	cmpw   $0x1fff,-0x2(%ebp)
  101a83:	76 e1                	jbe    101a66 <pid_queue_init+0xe>
  101a85:	8b 45 08             	mov    0x8(%ebp),%eax
  101a88:	66 c7 40 02 00 00    	movw   $0x0,0x2(%eax)
  101a8e:	8b 45 08             	mov    0x8(%ebp),%eax
  101a91:	66 8b 40 02          	mov    0x2(%eax),%ax
  101a95:	8b 55 08             	mov    0x8(%ebp),%edx
  101a98:	66 89 02             	mov    %ax,(%edx)
  101a9b:	90                   	nop
  101a9c:	c9                   	leave  
  101a9d:	c3                   	ret    

00101a9e <pid_enqueue>:
  101a9e:	55                   	push   %ebp
  101a9f:	89 e5                	mov    %esp,%ebp
  101aa1:	83 ec 04             	sub    $0x4,%esp
  101aa4:	8b 45 0c             	mov    0xc(%ebp),%eax
  101aa7:	66 89 45 fc          	mov    %ax,-0x4(%ebp)
  101aab:	8b 45 08             	mov    0x8(%ebp),%eax
  101aae:	66 8b 40 02          	mov    0x2(%eax),%ax
  101ab2:	0f b7 c8             	movzwl %ax,%ecx
  101ab5:	8b 55 08             	mov    0x8(%ebp),%edx
  101ab8:	8b 45 fc             	mov    -0x4(%ebp),%eax
  101abb:	66 89 44 4a 04       	mov    %ax,0x4(%edx,%ecx,2)
  101ac0:	8b 45 08             	mov    0x8(%ebp),%eax
  101ac3:	66 8b 40 02          	mov    0x2(%eax),%ax
  101ac7:	0f b7 c0             	movzwl %ax,%eax
  101aca:	40                   	inc    %eax
  101acb:	25 ff 1f 00 80       	and    $0x80001fff,%eax
  101ad0:	85 c0                	test   %eax,%eax
  101ad2:	79 07                	jns    101adb <pid_enqueue+0x3d>
  101ad4:	48                   	dec    %eax
  101ad5:	0d 00 e0 ff ff       	or     $0xffffe000,%eax
  101ada:	40                   	inc    %eax
  101adb:	8b 55 08             	mov    0x8(%ebp),%edx
  101ade:	66 89 42 02          	mov    %ax,0x2(%edx)
  101ae2:	90                   	nop
  101ae3:	c9                   	leave  
  101ae4:	c3                   	ret    

00101ae5 <pid_dequeue>:
  101ae5:	55                   	push   %ebp
  101ae6:	89 e5                	mov    %esp,%ebp
  101ae8:	83 ec 10             	sub    $0x10,%esp
  101aeb:	ff 75 08             	pushl  0x8(%ebp)
  101aee:	e8 39 ff ff ff       	call   101a2c <pid_queue_length>
  101af3:	83 c4 04             	add    $0x4,%esp
  101af6:	66 85 c0             	test   %ax,%ax
  101af9:	75 07                	jne    101b02 <pid_dequeue+0x1d>
  101afb:	b8 ff ff ff ff       	mov    $0xffffffff,%eax
  101b00:	eb 39                	jmp    101b3b <pid_dequeue+0x56>
  101b02:	8b 45 08             	mov    0x8(%ebp),%eax
  101b05:	66 8b 00             	mov    (%eax),%ax
  101b08:	0f b7 d0             	movzwl %ax,%edx
  101b0b:	8b 45 08             	mov    0x8(%ebp),%eax
  101b0e:	66 8b 44 50 04       	mov    0x4(%eax,%edx,2),%ax
  101b13:	66 89 45 fe          	mov    %ax,-0x2(%ebp)
  101b17:	8b 45 08             	mov    0x8(%ebp),%eax
  101b1a:	66 8b 00             	mov    (%eax),%ax
  101b1d:	0f b7 c0             	movzwl %ax,%eax
  101b20:	40                   	inc    %eax
  101b21:	25 ff 1f 00 80       	and    $0x80001fff,%eax
  101b26:	85 c0                	test   %eax,%eax
  101b28:	79 07                	jns    101b31 <pid_dequeue+0x4c>
  101b2a:	48                   	dec    %eax
  101b2b:	0d 00 e0 ff ff       	or     $0xffffe000,%eax
  101b30:	40                   	inc    %eax
  101b31:	8b 55 08             	mov    0x8(%ebp),%edx
  101b34:	66 89 02             	mov    %ax,(%edx)
  101b37:	66 8b 45 fe          	mov    -0x2(%ebp),%ax
  101b3b:	c9                   	leave  
  101b3c:	c3                   	ret    

00101b3d <pid_queue_find>:
  101b3d:	55                   	push   %ebp
  101b3e:	89 e5                	mov    %esp,%ebp
  101b40:	83 ec 14             	sub    $0x14,%esp
  101b43:	8b 45 0c             	mov    0xc(%ebp),%eax
  101b46:	66 89 45 ec          	mov    %ax,-0x14(%ebp)
  101b4a:	8b 45 08             	mov    0x8(%ebp),%eax
  101b4d:	66 8b 00             	mov    (%eax),%ax
  101b50:	66 89 45 fe          	mov    %ax,-0x2(%ebp)
  101b54:	eb 30                	jmp    101b86 <pid_queue_find+0x49>
  101b56:	0f b7 55 fe          	movzwl -0x2(%ebp),%edx
  101b5a:	8b 45 08             	mov    0x8(%ebp),%eax
  101b5d:	66 8b 44 50 04       	mov    0x4(%eax,%edx,2),%ax
  101b62:	66 39 45 ec          	cmp    %ax,-0x14(%ebp)
  101b66:	75 05                	jne    101b6d <pid_queue_find+0x30>
  101b68:	8b 45 ec             	mov    -0x14(%ebp),%eax
  101b6b:	eb 2b                	jmp    101b98 <pid_queue_find+0x5b>
  101b6d:	0f b7 45 fe          	movzwl -0x2(%ebp),%eax
  101b71:	40                   	inc    %eax
  101b72:	25 ff 1f 00 80       	and    $0x80001fff,%eax
  101b77:	85 c0                	test   %eax,%eax
  101b79:	79 07                	jns    101b82 <pid_queue_find+0x45>
  101b7b:	48                   	dec    %eax
  101b7c:	0d 00 e0 ff ff       	or     $0xffffe000,%eax
  101b81:	40                   	inc    %eax
  101b82:	66 89 45 fe          	mov    %ax,-0x2(%ebp)
  101b86:	8b 45 08             	mov    0x8(%ebp),%eax
  101b89:	66 8b 40 02          	mov    0x2(%eax),%ax
  101b8d:	66 39 45 fe          	cmp    %ax,-0x2(%ebp)
  101b91:	75 c3                	jne    101b56 <pid_queue_find+0x19>
  101b93:	b8 ff ff ff ff       	mov    $0xffffffff,%eax
  101b98:	c9                   	leave  
  101b99:	c3                   	ret    

00101b9a <pid_queue_delete>:
  101b9a:	55                   	push   %ebp
  101b9b:	89 e5                	mov    %esp,%ebp
  101b9d:	83 ec 14             	sub    $0x14,%esp
  101ba0:	8b 45 0c             	mov    0xc(%ebp),%eax
  101ba3:	66 89 45 ec          	mov    %ax,-0x14(%ebp)
  101ba7:	8b 45 ec             	mov    -0x14(%ebp),%eax
  101baa:	66 89 45 fe          	mov    %ax,-0x2(%ebp)
  101bae:	eb 44                	jmp    101bf4 <pid_queue_delete+0x5a>
  101bb0:	0f b7 45 fe          	movzwl -0x2(%ebp),%eax
  101bb4:	40                   	inc    %eax
  101bb5:	25 ff 1f 00 80       	and    $0x80001fff,%eax
  101bba:	85 c0                	test   %eax,%eax
  101bbc:	79 07                	jns    101bc5 <pid_queue_delete+0x2b>
  101bbe:	48                   	dec    %eax
  101bbf:	0d 00 e0 ff ff       	or     $0xffffe000,%eax
  101bc4:	40                   	inc    %eax
  101bc5:	89 c2                	mov    %eax,%edx
  101bc7:	0f b7 4d fe          	movzwl -0x2(%ebp),%ecx
  101bcb:	8b 45 08             	mov    0x8(%ebp),%eax
  101bce:	66 8b 44 50 04       	mov    0x4(%eax,%edx,2),%ax
  101bd3:	8b 55 08             	mov    0x8(%ebp),%edx
  101bd6:	66 89 44 4a 04       	mov    %ax,0x4(%edx,%ecx,2)
  101bdb:	0f b7 45 fe          	movzwl -0x2(%ebp),%eax
  101bdf:	40                   	inc    %eax
  101be0:	25 ff 1f 00 80       	and    $0x80001fff,%eax
  101be5:	85 c0                	test   %eax,%eax
  101be7:	79 07                	jns    101bf0 <pid_queue_delete+0x56>
  101be9:	48                   	dec    %eax
  101bea:	0d 00 e0 ff ff       	or     $0xffffe000,%eax
  101bef:	40                   	inc    %eax
  101bf0:	66 89 45 fe          	mov    %ax,-0x2(%ebp)
  101bf4:	8b 45 08             	mov    0x8(%ebp),%eax
  101bf7:	66 8b 40 02          	mov    0x2(%eax),%ax
  101bfb:	66 39 45 fe          	cmp    %ax,-0x2(%ebp)
  101bff:	75 af                	jne    101bb0 <pid_queue_delete+0x16>
  101c01:	8b 45 08             	mov    0x8(%ebp),%eax
  101c04:	66 8b 40 02          	mov    0x2(%eax),%ax
  101c08:	48                   	dec    %eax
  101c09:	8b 55 08             	mov    0x8(%ebp),%edx
  101c0c:	66 89 42 02          	mov    %ax,0x2(%edx)
  101c10:	90                   	nop
  101c11:	c9                   	leave  
  101c12:	c3                   	ret    

00101c13 <bit_alloc>:
  101c13:	55                   	push   %ebp
  101c14:	89 e5                	mov    %esp,%ebp
  101c16:	83 ec 28             	sub    $0x28,%esp
  101c19:	8b 45 0c             	mov    0xc(%ebp),%eax
  101c1c:	88 45 e4             	mov    %al,-0x1c(%ebp)
  101c1f:	c7 45 f4 00 00 00 00 	movl   $0x0,-0xc(%ebp)
  101c26:	e9 b0 00 00 00       	jmp    101cdb <bit_alloc+0xc8>
  101c2b:	80 7d e4 00          	cmpb   $0x0,-0x1c(%ebp)
  101c2f:	74 10                	je     101c41 <bit_alloc+0x2e>
  101c31:	8b 45 08             	mov    0x8(%ebp),%eax
  101c34:	8b 10                	mov    (%eax),%edx
  101c36:	8b 45 f4             	mov    -0xc(%ebp),%eax
  101c39:	01 d0                	add    %edx,%eax
  101c3b:	8a 00                	mov    (%eax),%al
  101c3d:	84 c0                	test   %al,%al
  101c3f:	75 1e                	jne    101c5f <bit_alloc+0x4c>
  101c41:	8a 45 e4             	mov    -0x1c(%ebp),%al
  101c44:	83 f0 01             	xor    $0x1,%eax
  101c47:	84 c0                	test   %al,%al
  101c49:	0f 84 89 00 00 00    	je     101cd8 <bit_alloc+0xc5>
  101c4f:	8b 45 08             	mov    0x8(%ebp),%eax
  101c52:	8b 10                	mov    (%eax),%edx
  101c54:	8b 45 f4             	mov    -0xc(%ebp),%eax
  101c57:	01 d0                	add    %edx,%eax
  101c59:	8a 00                	mov    (%eax),%al
  101c5b:	3c ff                	cmp    $0xff,%al
  101c5d:	74 79                	je     101cd8 <bit_alloc+0xc5>
  101c5f:	c7 45 f0 00 00 00 00 	movl   $0x0,-0x10(%ebp)
  101c66:	eb 6a                	jmp    101cd2 <bit_alloc+0xbf>
  101c68:	8b 45 f0             	mov    -0x10(%ebp),%eax
  101c6b:	0f b6 d0             	movzbl %al,%edx
  101c6e:	8b 45 08             	mov    0x8(%ebp),%eax
  101c71:	8b 08                	mov    (%eax),%ecx
  101c73:	8b 45 f4             	mov    -0xc(%ebp),%eax
  101c76:	01 c8                	add    %ecx,%eax
  101c78:	8a 00                	mov    (%eax),%al
  101c7a:	0f b6 c0             	movzbl %al,%eax
  101c7d:	83 ec 08             	sub    $0x8,%esp
  101c80:	52                   	push   %edx
  101c81:	50                   	push   %eax
  101c82:	e8 28 fd ff ff       	call   1019af <testbit>
  101c87:	83 c4 10             	add    $0x10,%esp
  101c8a:	38 45 e4             	cmp    %al,-0x1c(%ebp)
  101c8d:	75 40                	jne    101ccf <bit_alloc+0xbc>
  101c8f:	0f b6 45 e4          	movzbl -0x1c(%ebp),%eax
  101c93:	85 c0                	test   %eax,%eax
  101c95:	0f 95 c0             	setne  %al
  101c98:	83 f0 01             	xor    $0x1,%eax
  101c9b:	0f b6 c0             	movzbl %al,%eax
  101c9e:	83 e0 01             	and    $0x1,%eax
  101ca1:	0f b6 c0             	movzbl %al,%eax
  101ca4:	8b 55 08             	mov    0x8(%ebp),%edx
  101ca7:	8b 0a                	mov    (%edx),%ecx
  101ca9:	8b 55 f4             	mov    -0xc(%ebp),%edx
  101cac:	01 ca                	add    %ecx,%edx
  101cae:	83 ec 04             	sub    $0x4,%esp
  101cb1:	50                   	push   %eax
  101cb2:	ff 75 f0             	pushl  -0x10(%ebp)
  101cb5:	52                   	push   %edx
  101cb6:	e8 1f fd ff ff       	call   1019da <setbit>
  101cbb:	83 c4 10             	add    $0x10,%esp
  101cbe:	8b 45 f4             	mov    -0xc(%ebp),%eax
  101cc1:	8d 14 c5 00 00 00 00 	lea    0x0(,%eax,8),%edx
  101cc8:	8b 45 f0             	mov    -0x10(%ebp),%eax
  101ccb:	01 d0                	add    %edx,%eax
  101ccd:	eb 2a                	jmp    101cf9 <bit_alloc+0xe6>
  101ccf:	ff 45 f0             	incl   -0x10(%ebp)
  101cd2:	83 7d f0 07          	cmpl   $0x7,-0x10(%ebp)
  101cd6:	7e 90                	jle    101c68 <bit_alloc+0x55>
  101cd8:	ff 45 f4             	incl   -0xc(%ebp)
  101cdb:	8b 45 08             	mov    0x8(%ebp),%eax
  101cde:	8b 40 04             	mov    0x4(%eax),%eax
  101ce1:	85 c0                	test   %eax,%eax
  101ce3:	79 03                	jns    101ce8 <bit_alloc+0xd5>
  101ce5:	83 c0 07             	add    $0x7,%eax
  101ce8:	c1 f8 03             	sar    $0x3,%eax
  101ceb:	39 45 f4             	cmp    %eax,-0xc(%ebp)
  101cee:	0f 8c 37 ff ff ff    	jl     101c2b <bit_alloc+0x18>
  101cf4:	b8 ff ff ff ff       	mov    $0xffffffff,%eax
  101cf9:	c9                   	leave  
  101cfa:	c3                   	ret    

00101cfb <bit_free>:
  101cfb:	55                   	push   %ebp
  101cfc:	89 e5                	mov    %esp,%ebp
  101cfe:	53                   	push   %ebx
  101cff:	83 ec 14             	sub    $0x14,%esp
  101d02:	8b 45 10             	mov    0x10(%ebp),%eax
  101d05:	88 45 f4             	mov    %al,-0xc(%ebp)
  101d08:	0f b6 45 f4          	movzbl -0xc(%ebp),%eax
  101d0c:	8b 55 0c             	mov    0xc(%ebp),%edx
  101d0f:	89 d1                	mov    %edx,%ecx
  101d11:	83 e1 07             	and    $0x7,%ecx
  101d14:	8b 55 08             	mov    0x8(%ebp),%edx
  101d17:	8b 12                	mov    (%edx),%edx
  101d19:	8b 5d 0c             	mov    0xc(%ebp),%ebx
  101d1c:	c1 fb 03             	sar    $0x3,%ebx
  101d1f:	01 da                	add    %ebx,%edx
  101d21:	83 ec 04             	sub    $0x4,%esp
  101d24:	50                   	push   %eax
  101d25:	51                   	push   %ecx
  101d26:	52                   	push   %edx
  101d27:	e8 ae fc ff ff       	call   1019da <setbit>
  101d2c:	83 c4 10             	add    $0x10,%esp
  101d2f:	90                   	nop
  101d30:	8b 5d fc             	mov    -0x4(%ebp),%ebx
  101d33:	c9                   	leave  
  101d34:	c3                   	ret    

00101d35 <bit_bind>:
  101d35:	55                   	push   %ebp
  101d36:	89 e5                	mov    %esp,%ebp
  101d38:	8b 45 08             	mov    0x8(%ebp),%eax
  101d3b:	8b 55 0c             	mov    0xc(%ebp),%edx
  101d3e:	89 10                	mov    %edx,(%eax)
  101d40:	8b 45 08             	mov    0x8(%ebp),%eax
  101d43:	8b 55 10             	mov    0x10(%ebp),%edx
  101d46:	89 50 04             	mov    %edx,0x4(%eax)
  101d49:	90                   	nop
  101d4a:	5d                   	pop    %ebp
  101d4b:	c3                   	ret    

00101d4c <read_cr0>:
  101d4c:	55                   	push   %ebp
  101d4d:	89 e5                	mov    %esp,%ebp
  101d4f:	83 ec 10             	sub    $0x10,%esp
  101d52:	0f 20 c0             	mov    %cr0,%eax
  101d55:	89 45 fc             	mov    %eax,-0x4(%ebp)
  101d58:	8b 45 fc             	mov    -0x4(%ebp),%eax
  101d5b:	c9                   	leave  
  101d5c:	c3                   	ret    

00101d5d <write_cr0>:
  101d5d:	55                   	push   %ebp
  101d5e:	89 e5                	mov    %esp,%ebp
  101d60:	8b 45 08             	mov    0x8(%ebp),%eax
  101d63:	0f 22 c0             	mov    %eax,%cr0
  101d66:	90                   	nop
  101d67:	5d                   	pop    %ebp
  101d68:	c3                   	ret    

00101d69 <write_cr3>:
  101d69:	55                   	push   %ebp
  101d6a:	89 e5                	mov    %esp,%ebp
  101d6c:	8b 45 08             	mov    0x8(%ebp),%eax
  101d6f:	0f 22 d8             	mov    %eax,%cr3
  101d72:	90                   	nop
  101d73:	5d                   	pop    %ebp
  101d74:	c3                   	ret    

00101d75 <inb>:
  101d75:	55                   	push   %ebp
  101d76:	89 e5                	mov    %esp,%ebp
  101d78:	83 ec 14             	sub    $0x14,%esp
  101d7b:	8b 45 08             	mov    0x8(%ebp),%eax
  101d7e:	66 89 45 ec          	mov    %ax,-0x14(%ebp)
  101d82:	8b 45 ec             	mov    -0x14(%ebp),%eax
  101d85:	89 c2                	mov    %eax,%edx
  101d87:	ec                   	in     (%dx),%al
  101d88:	88 45 ff             	mov    %al,-0x1(%ebp)
  101d8b:	8a 45 ff             	mov    -0x1(%ebp),%al
  101d8e:	c9                   	leave  
  101d8f:	c3                   	ret    

00101d90 <inw>:
  101d90:	55                   	push   %ebp
  101d91:	89 e5                	mov    %esp,%ebp
  101d93:	83 ec 14             	sub    $0x14,%esp
  101d96:	8b 45 08             	mov    0x8(%ebp),%eax
  101d99:	66 89 45 ec          	mov    %ax,-0x14(%ebp)
  101d9d:	8b 45 ec             	mov    -0x14(%ebp),%eax
  101da0:	89 c2                	mov    %eax,%edx
  101da2:	66 ed                	in     (%dx),%ax
  101da4:	66 89 45 fe          	mov    %ax,-0x2(%ebp)
  101da8:	66 8b 45 fe          	mov    -0x2(%ebp),%ax
  101dac:	c9                   	leave  
  101dad:	c3                   	ret    

00101dae <outb>:
  101dae:	55                   	push   %ebp
  101daf:	89 e5                	mov    %esp,%ebp
  101db1:	83 ec 08             	sub    $0x8,%esp
  101db4:	8b 45 08             	mov    0x8(%ebp),%eax
  101db7:	8b 55 0c             	mov    0xc(%ebp),%edx
  101dba:	66 89 45 fc          	mov    %ax,-0x4(%ebp)
  101dbe:	88 d0                	mov    %dl,%al
  101dc0:	88 45 f8             	mov    %al,-0x8(%ebp)
  101dc3:	8b 55 fc             	mov    -0x4(%ebp),%edx
  101dc6:	8a 45 f8             	mov    -0x8(%ebp),%al
  101dc9:	ee                   	out    %al,(%dx)
  101dca:	90                   	nop
  101dcb:	c9                   	leave  
  101dcc:	c3                   	ret    

00101dcd <outw>:
  101dcd:	55                   	push   %ebp
  101dce:	89 e5                	mov    %esp,%ebp
  101dd0:	83 ec 08             	sub    $0x8,%esp
  101dd3:	8b 55 08             	mov    0x8(%ebp),%edx
  101dd6:	8b 45 0c             	mov    0xc(%ebp),%eax
  101dd9:	66 89 55 fc          	mov    %dx,-0x4(%ebp)
  101ddd:	66 89 45 f8          	mov    %ax,-0x8(%ebp)
  101de1:	8b 55 fc             	mov    -0x4(%ebp),%edx
  101de4:	8b 45 f8             	mov    -0x8(%ebp),%eax
  101de7:	66 ef                	out    %ax,(%dx)
  101de9:	90                   	nop
  101dea:	c9                   	leave  
  101deb:	c3                   	ret    

00101dec <read_disk>:
  101dec:	55                   	push   %ebp
  101ded:	89 e5                	mov    %esp,%ebp
  101def:	53                   	push   %ebx
  101df0:	83 ec 10             	sub    $0x10,%esp
  101df3:	68 e0 00 00 00       	push   $0xe0
  101df8:	68 f6 01 00 00       	push   $0x1f6
  101dfd:	e8 ac ff ff ff       	call   101dae <outb>
  101e02:	83 c4 08             	add    $0x8,%esp
  101e05:	8b 45 0c             	mov    0xc(%ebp),%eax
  101e08:	c1 e8 08             	shr    $0x8,%eax
  101e0b:	0f b6 c0             	movzbl %al,%eax
  101e0e:	50                   	push   %eax
  101e0f:	68 f2 01 00 00       	push   $0x1f2
  101e14:	e8 95 ff ff ff       	call   101dae <outb>
  101e19:	83 c4 08             	add    $0x8,%esp
  101e1c:	8b 45 08             	mov    0x8(%ebp),%eax
  101e1f:	c1 e8 18             	shr    $0x18,%eax
  101e22:	0f b6 c0             	movzbl %al,%eax
  101e25:	50                   	push   %eax
  101e26:	68 f3 01 00 00       	push   $0x1f3
  101e2b:	e8 7e ff ff ff       	call   101dae <outb>
  101e30:	83 c4 08             	add    $0x8,%esp
  101e33:	6a 00                	push   $0x0
  101e35:	68 f4 01 00 00       	push   $0x1f4
  101e3a:	e8 6f ff ff ff       	call   101dae <outb>
  101e3f:	83 c4 08             	add    $0x8,%esp
  101e42:	6a 00                	push   $0x0
  101e44:	68 f5 01 00 00       	push   $0x1f5
  101e49:	e8 60 ff ff ff       	call   101dae <outb>
  101e4e:	83 c4 08             	add    $0x8,%esp
  101e51:	8b 45 0c             	mov    0xc(%ebp),%eax
  101e54:	0f b6 c0             	movzbl %al,%eax
  101e57:	50                   	push   %eax
  101e58:	68 f2 01 00 00       	push   $0x1f2
  101e5d:	e8 4c ff ff ff       	call   101dae <outb>
  101e62:	83 c4 08             	add    $0x8,%esp
  101e65:	8b 45 08             	mov    0x8(%ebp),%eax
  101e68:	0f b6 c0             	movzbl %al,%eax
  101e6b:	50                   	push   %eax
  101e6c:	68 f3 01 00 00       	push   $0x1f3
  101e71:	e8 38 ff ff ff       	call   101dae <outb>
  101e76:	83 c4 08             	add    $0x8,%esp
  101e79:	8b 45 08             	mov    0x8(%ebp),%eax
  101e7c:	c1 e8 08             	shr    $0x8,%eax
  101e7f:	0f b6 c0             	movzbl %al,%eax
  101e82:	50                   	push   %eax
  101e83:	68 f4 01 00 00       	push   $0x1f4
  101e88:	e8 21 ff ff ff       	call   101dae <outb>
  101e8d:	83 c4 08             	add    $0x8,%esp
  101e90:	8b 45 08             	mov    0x8(%ebp),%eax
  101e93:	c1 e8 10             	shr    $0x10,%eax
  101e96:	0f b6 c0             	movzbl %al,%eax
  101e99:	50                   	push   %eax
  101e9a:	68 f5 01 00 00       	push   $0x1f5
  101e9f:	e8 0a ff ff ff       	call   101dae <outb>
  101ea4:	83 c4 08             	add    $0x8,%esp
  101ea7:	6a 24                	push   $0x24
  101ea9:	68 f7 01 00 00       	push   $0x1f7
  101eae:	e8 fb fe ff ff       	call   101dae <outb>
  101eb3:	83 c4 08             	add    $0x8,%esp
  101eb6:	8b 45 10             	mov    0x10(%ebp),%eax
  101eb9:	89 45 f8             	mov    %eax,-0x8(%ebp)
  101ebc:	eb 49                	jmp    101f07 <read_disk+0x11b>
  101ebe:	90                   	nop
  101ebf:	68 f7 01 00 00       	push   $0x1f7
  101ec4:	e8 ac fe ff ff       	call   101d75 <inb>
  101ec9:	83 c4 04             	add    $0x4,%esp
  101ecc:	0f b6 c0             	movzbl %al,%eax
  101ecf:	25 88 00 00 00       	and    $0x88,%eax
  101ed4:	83 f8 08             	cmp    $0x8,%eax
  101ed7:	75 e6                	jne    101ebf <read_disk+0xd3>
  101ed9:	c7 45 f4 00 00 00 00 	movl   $0x0,-0xc(%ebp)
  101ee0:	eb 1c                	jmp    101efe <read_disk+0x112>
  101ee2:	8b 5d f8             	mov    -0x8(%ebp),%ebx
  101ee5:	8d 43 02             	lea    0x2(%ebx),%eax
  101ee8:	89 45 f8             	mov    %eax,-0x8(%ebp)
  101eeb:	68 f0 01 00 00       	push   $0x1f0
  101ef0:	e8 9b fe ff ff       	call   101d90 <inw>
  101ef5:	83 c4 04             	add    $0x4,%esp
  101ef8:	66 89 03             	mov    %ax,(%ebx)
  101efb:	ff 45 f4             	incl   -0xc(%ebp)
  101efe:	81 7d f4 ff 00 00 00 	cmpl   $0xff,-0xc(%ebp)
  101f05:	7e db                	jle    101ee2 <read_disk+0xf6>
  101f07:	8b 45 0c             	mov    0xc(%ebp),%eax
  101f0a:	8d 50 ff             	lea    -0x1(%eax),%edx
  101f0d:	89 55 0c             	mov    %edx,0xc(%ebp)
  101f10:	85 c0                	test   %eax,%eax
  101f12:	75 aa                	jne    101ebe <read_disk+0xd2>
  101f14:	90                   	nop
  101f15:	8b 5d fc             	mov    -0x4(%ebp),%ebx
  101f18:	c9                   	leave  
  101f19:	c3                   	ret    

00101f1a <write_disk>:
  101f1a:	55                   	push   %ebp
  101f1b:	89 e5                	mov    %esp,%ebp
  101f1d:	83 ec 10             	sub    $0x10,%esp
  101f20:	68 e0 00 00 00       	push   $0xe0
  101f25:	68 f6 01 00 00       	push   $0x1f6
  101f2a:	e8 7f fe ff ff       	call   101dae <outb>
  101f2f:	83 c4 08             	add    $0x8,%esp
  101f32:	8b 45 0c             	mov    0xc(%ebp),%eax
  101f35:	c1 e8 08             	shr    $0x8,%eax
  101f38:	0f b6 c0             	movzbl %al,%eax
  101f3b:	50                   	push   %eax
  101f3c:	68 f2 01 00 00       	push   $0x1f2
  101f41:	e8 68 fe ff ff       	call   101dae <outb>
  101f46:	83 c4 08             	add    $0x8,%esp
  101f49:	8b 45 08             	mov    0x8(%ebp),%eax
  101f4c:	c1 e8 18             	shr    $0x18,%eax
  101f4f:	0f b6 c0             	movzbl %al,%eax
  101f52:	50                   	push   %eax
  101f53:	68 f3 01 00 00       	push   $0x1f3
  101f58:	e8 51 fe ff ff       	call   101dae <outb>
  101f5d:	83 c4 08             	add    $0x8,%esp
  101f60:	6a 00                	push   $0x0
  101f62:	68 f4 01 00 00       	push   $0x1f4
  101f67:	e8 42 fe ff ff       	call   101dae <outb>
  101f6c:	83 c4 08             	add    $0x8,%esp
  101f6f:	6a 00                	push   $0x0
  101f71:	68 f5 01 00 00       	push   $0x1f5
  101f76:	e8 33 fe ff ff       	call   101dae <outb>
  101f7b:	83 c4 08             	add    $0x8,%esp
  101f7e:	8b 45 0c             	mov    0xc(%ebp),%eax
  101f81:	0f b6 c0             	movzbl %al,%eax
  101f84:	50                   	push   %eax
  101f85:	68 f2 01 00 00       	push   $0x1f2
  101f8a:	e8 1f fe ff ff       	call   101dae <outb>
  101f8f:	83 c4 08             	add    $0x8,%esp
  101f92:	8b 45 08             	mov    0x8(%ebp),%eax
  101f95:	0f b6 c0             	movzbl %al,%eax
  101f98:	50                   	push   %eax
  101f99:	68 f3 01 00 00       	push   $0x1f3
  101f9e:	e8 0b fe ff ff       	call   101dae <outb>
  101fa3:	83 c4 08             	add    $0x8,%esp
  101fa6:	8b 45 08             	mov    0x8(%ebp),%eax
  101fa9:	c1 e8 08             	shr    $0x8,%eax
  101fac:	0f b6 c0             	movzbl %al,%eax
  101faf:	50                   	push   %eax
  101fb0:	68 f4 01 00 00       	push   $0x1f4
  101fb5:	e8 f4 fd ff ff       	call   101dae <outb>
  101fba:	83 c4 08             	add    $0x8,%esp
  101fbd:	8b 45 08             	mov    0x8(%ebp),%eax
  101fc0:	c1 e8 10             	shr    $0x10,%eax
  101fc3:	0f b6 c0             	movzbl %al,%eax
  101fc6:	50                   	push   %eax
  101fc7:	68 f5 01 00 00       	push   $0x1f5
  101fcc:	e8 dd fd ff ff       	call   101dae <outb>
  101fd1:	83 c4 08             	add    $0x8,%esp
  101fd4:	6a 34                	push   $0x34
  101fd6:	68 f7 01 00 00       	push   $0x1f7
  101fdb:	e8 ce fd ff ff       	call   101dae <outb>
  101fe0:	83 c4 08             	add    $0x8,%esp
  101fe3:	8b 45 10             	mov    0x10(%ebp),%eax
  101fe6:	89 45 fc             	mov    %eax,-0x4(%ebp)
  101fe9:	eb 4d                	jmp    102038 <write_disk+0x11e>
  101feb:	90                   	nop
  101fec:	68 f7 01 00 00       	push   $0x1f7
  101ff1:	e8 7f fd ff ff       	call   101d75 <inb>
  101ff6:	83 c4 04             	add    $0x4,%esp
  101ff9:	0f b6 c0             	movzbl %al,%eax
  101ffc:	25 88 00 00 00       	and    $0x88,%eax
  102001:	83 f8 08             	cmp    $0x8,%eax
  102004:	75 e6                	jne    101fec <write_disk+0xd2>
  102006:	c7 45 f8 00 00 00 00 	movl   $0x0,-0x8(%ebp)
  10200d:	eb 20                	jmp    10202f <write_disk+0x115>
  10200f:	8b 45 fc             	mov    -0x4(%ebp),%eax
  102012:	8d 50 02             	lea    0x2(%eax),%edx
  102015:	89 55 fc             	mov    %edx,-0x4(%ebp)
  102018:	66 8b 00             	mov    (%eax),%ax
  10201b:	0f b7 c0             	movzwl %ax,%eax
  10201e:	50                   	push   %eax
  10201f:	68 f0 01 00 00       	push   $0x1f0
  102024:	e8 a4 fd ff ff       	call   101dcd <outw>
  102029:	83 c4 08             	add    $0x8,%esp
  10202c:	ff 45 f8             	incl   -0x8(%ebp)
  10202f:	81 7d f8 ff 00 00 00 	cmpl   $0xff,-0x8(%ebp)
  102036:	7e d7                	jle    10200f <write_disk+0xf5>
  102038:	8b 45 0c             	mov    0xc(%ebp),%eax
  10203b:	8d 50 ff             	lea    -0x1(%eax),%edx
  10203e:	89 55 0c             	mov    %edx,0xc(%ebp)
  102041:	85 c0                	test   %eax,%eax
  102043:	75 a6                	jne    101feb <write_disk+0xd1>
  102045:	68 e7 00 00 00       	push   $0xe7
  10204a:	68 f7 01 00 00       	push   $0x1f7
  10204f:	e8 5a fd ff ff       	call   101dae <outb>
  102054:	83 c4 08             	add    $0x8,%esp
  102057:	90                   	nop
  102058:	c9                   	leave  
  102059:	c3                   	ret    

0010205a <memory_init>:
  10205a:	55                   	push   %ebp
  10205b:	89 e5                	mov    %esp,%ebp
  10205d:	83 ec 08             	sub    $0x8,%esp
  102060:	e8 5d 00 00 00       	call   1020c2 <memory_alloc_init>
  102065:	b8 00 c0 21 00       	mov    $0x21c000,%eax
  10206a:	83 ec 04             	sub    $0x4,%esp
  10206d:	6a 03                	push   $0x3
  10206f:	68 00 00 00 10       	push   $0x10000000
  102074:	50                   	push   %eax
  102075:	e8 7d 01 00 00       	call   1021f7 <add_mmap_to_itself>
  10207a:	83 c4 10             	add    $0x10,%esp
  10207d:	b8 00 c0 21 00       	mov    $0x21c000,%eax
  102082:	83 ec 0c             	sub    $0xc,%esp
  102085:	50                   	push   %eax
  102086:	e8 de fc ff ff       	call   101d69 <write_cr3>
  10208b:	83 c4 10             	add    $0x10,%esp
  10208e:	e8 16 00 00 00       	call   1020a9 <enable_page>
  102093:	b8 80 28 10 00       	mov    $0x102880,%eax
  102098:	83 ec 08             	sub    $0x8,%esp
  10209b:	50                   	push   %eax
  10209c:	6a 0e                	push   $0xe
  10209e:	e8 c9 e5 ff ff       	call   10066c <set_idt>
  1020a3:	83 c4 10             	add    $0x10,%esp
  1020a6:	90                   	nop
  1020a7:	c9                   	leave  
  1020a8:	c3                   	ret    

001020a9 <enable_page>:
  1020a9:	55                   	push   %ebp
  1020aa:	89 e5                	mov    %esp,%ebp
  1020ac:	e8 9b fc ff ff       	call   101d4c <read_cr0>
  1020b1:	0d 00 00 00 80       	or     $0x80000000,%eax
  1020b6:	50                   	push   %eax
  1020b7:	e8 a1 fc ff ff       	call   101d5d <write_cr0>
  1020bc:	83 c4 04             	add    $0x4,%esp
  1020bf:	90                   	nop
  1020c0:	c9                   	leave  
  1020c1:	c3                   	ret    

001020c2 <memory_alloc_init>:
  1020c2:	55                   	push   %ebp
  1020c3:	89 e5                	mov    %esp,%ebp
  1020c5:	83 ec 18             	sub    $0x18,%esp
  1020c8:	83 ec 04             	sub    $0x4,%esp
  1020cb:	68 00 00 10 00       	push   $0x100000
  1020d0:	68 00 d0 21 00       	push   $0x21d000
  1020d5:	68 00 d0 23 00       	push   $0x23d000
  1020da:	e8 56 fc ff ff       	call   101d35 <bit_bind>
  1020df:	83 c4 10             	add    $0x10,%esp
  1020e2:	c7 45 f4 00 00 00 00 	movl   $0x0,-0xc(%ebp)
  1020e9:	eb 18                	jmp    102103 <memory_alloc_init+0x41>
  1020eb:	83 ec 04             	sub    $0x4,%esp
  1020ee:	6a 01                	push   $0x1
  1020f0:	ff 75 f4             	pushl  -0xc(%ebp)
  1020f3:	68 00 d0 23 00       	push   $0x23d000
  1020f8:	e8 fe fb ff ff       	call   101cfb <bit_free>
  1020fd:	83 c4 10             	add    $0x10,%esp
  102100:	ff 45 f4             	incl   -0xc(%ebp)
  102103:	8b 45 f4             	mov    -0xc(%ebp),%eax
  102106:	c1 e0 0c             	shl    $0xc,%eax
  102109:	3d ff ff 7f 00       	cmp    $0x7fffff,%eax
  10210e:	7e db                	jle    1020eb <memory_alloc_init+0x29>
  102110:	90                   	nop
  102111:	c9                   	leave  
  102112:	c3                   	ret    

00102113 <set_mmap>:
  102113:	55                   	push   %ebp
  102114:	89 e5                	mov    %esp,%ebp
  102116:	83 ec 28             	sub    $0x28,%esp
  102119:	8b 45 14             	mov    0x14(%ebp),%eax
  10211c:	66 89 45 e4          	mov    %ax,-0x1c(%ebp)
  102120:	83 ec 04             	sub    $0x4,%esp
  102123:	6a 20                	push   $0x20
  102125:	6a 16                	push   $0x16
  102127:	ff 75 0c             	pushl  0xc(%ebp)
  10212a:	e8 40 f8 ff ff       	call   10196f <testbits>
  10212f:	83 c4 10             	add    $0x10,%esp
  102132:	89 45 f4             	mov    %eax,-0xc(%ebp)
  102135:	8b 45 f4             	mov    -0xc(%ebp),%eax
  102138:	8d 14 85 00 00 00 00 	lea    0x0(,%eax,4),%edx
  10213f:	8b 45 08             	mov    0x8(%ebp),%eax
  102142:	01 d0                	add    %edx,%eax
  102144:	8b 00                	mov    (%eax),%eax
  102146:	83 ec 08             	sub    $0x8,%esp
  102149:	6a 00                	push   $0x0
  10214b:	50                   	push   %eax
  10214c:	e8 5e f8 ff ff       	call   1019af <testbit>
  102151:	83 c4 10             	add    $0x10,%esp
  102154:	88 45 f3             	mov    %al,-0xd(%ebp)
  102157:	8a 45 f3             	mov    -0xd(%ebp),%al
  10215a:	83 f0 01             	xor    $0x1,%eax
  10215d:	84 c0                	test   %al,%al
  10215f:	74 1b                	je     10217c <set_mmap+0x69>
  102161:	e8 ba 01 00 00       	call   102320 <p_malloc>
  102166:	89 c2                	mov    %eax,%edx
  102168:	8b 45 f4             	mov    -0xc(%ebp),%eax
  10216b:	8d 0c 85 00 00 00 00 	lea    0x0(,%eax,4),%ecx
  102172:	8b 45 08             	mov    0x8(%ebp),%eax
  102175:	01 c8                	add    %ecx,%eax
  102177:	83 ca 07             	or     $0x7,%edx
  10217a:	89 10                	mov    %edx,(%eax)
  10217c:	8b 45 f4             	mov    -0xc(%ebp),%eax
  10217f:	8d 14 85 00 00 00 00 	lea    0x0(,%eax,4),%edx
  102186:	8b 45 08             	mov    0x8(%ebp),%eax
  102189:	01 d0                	add    %edx,%eax
  10218b:	8b 00                	mov    (%eax),%eax
  10218d:	25 00 f0 ff ff       	and    $0xfffff000,%eax
  102192:	89 45 ec             	mov    %eax,-0x14(%ebp)
  102195:	83 ec 04             	sub    $0x4,%esp
  102198:	6a 16                	push   $0x16
  10219a:	6a 0c                	push   $0xc
  10219c:	ff 75 0c             	pushl  0xc(%ebp)
  10219f:	e8 cb f7 ff ff       	call   10196f <testbits>
  1021a4:	83 c4 10             	add    $0x10,%esp
  1021a7:	89 45 e8             	mov    %eax,-0x18(%ebp)
  1021aa:	0f b7 45 e4          	movzwl -0x1c(%ebp),%eax
  1021ae:	8b 55 e8             	mov    -0x18(%ebp),%edx
  1021b1:	8d 0c 95 00 00 00 00 	lea    0x0(,%edx,4),%ecx
  1021b8:	8b 55 ec             	mov    -0x14(%ebp),%edx
  1021bb:	01 ca                	add    %ecx,%edx
  1021bd:	0b 45 10             	or     0x10(%ebp),%eax
  1021c0:	89 02                	mov    %eax,(%edx)
  1021c2:	8a 45 f3             	mov    -0xd(%ebp),%al
  1021c5:	c9                   	leave  
  1021c6:	c3                   	ret    

001021c7 <load_memory>:
  1021c7:	55                   	push   %ebp
  1021c8:	89 e5                	mov    %esp,%ebp
  1021ca:	83 ec 28             	sub    $0x28,%esp
  1021cd:	8b 45 10             	mov    0x10(%ebp),%eax
  1021d0:	66 89 45 e4          	mov    %ax,-0x1c(%ebp)
  1021d4:	e8 47 01 00 00       	call   102320 <p_malloc>
  1021d9:	89 45 f4             	mov    %eax,-0xc(%ebp)
  1021dc:	0f b7 45 e4          	movzwl -0x1c(%ebp),%eax
  1021e0:	50                   	push   %eax
  1021e1:	ff 75 f4             	pushl  -0xc(%ebp)
  1021e4:	ff 75 0c             	pushl  0xc(%ebp)
  1021e7:	ff 75 08             	pushl  0x8(%ebp)
  1021ea:	e8 24 ff ff ff       	call   102113 <set_mmap>
  1021ef:	83 c4 10             	add    $0x10,%esp
  1021f2:	8b 45 f4             	mov    -0xc(%ebp),%eax
  1021f5:	c9                   	leave  
  1021f6:	c3                   	ret    

001021f7 <add_mmap_to_itself>:
  1021f7:	55                   	push   %ebp
  1021f8:	89 e5                	mov    %esp,%ebp
  1021fa:	83 ec 28             	sub    $0x28,%esp
  1021fd:	8b 45 10             	mov    0x10(%ebp),%eax
  102200:	66 89 45 e4          	mov    %ax,-0x1c(%ebp)
  102204:	c7 45 f4 00 00 00 00 	movl   $0x0,-0xc(%ebp)
  10220b:	eb 1c                	jmp    102229 <add_mmap_to_itself+0x32>
  10220d:	8b 55 f4             	mov    -0xc(%ebp),%edx
  102210:	8b 45 f4             	mov    -0xc(%ebp),%eax
  102213:	6a 03                	push   $0x3
  102215:	52                   	push   %edx
  102216:	50                   	push   %eax
  102217:	ff 75 08             	pushl  0x8(%ebp)
  10221a:	e8 f4 fe ff ff       	call   102113 <set_mmap>
  10221f:	83 c4 10             	add    $0x10,%esp
  102222:	81 45 f4 00 10 00 00 	addl   $0x1000,-0xc(%ebp)
  102229:	8b 45 f4             	mov    -0xc(%ebp),%eax
  10222c:	39 45 0c             	cmp    %eax,0xc(%ebp)
  10222f:	77 dc                	ja     10220d <add_mmap_to_itself+0x16>
  102231:	90                   	nop
  102232:	c9                   	leave  
  102233:	c3                   	ret    

00102234 <addr_translate>:
  102234:	55                   	push   %ebp
  102235:	89 e5                	mov    %esp,%ebp
  102237:	83 ec 18             	sub    $0x18,%esp
  10223a:	8b 45 08             	mov    0x8(%ebp),%eax
  10223d:	89 45 f4             	mov    %eax,-0xc(%ebp)
  102240:	83 ec 04             	sub    $0x4,%esp
  102243:	6a 20                	push   $0x20
  102245:	6a 16                	push   $0x16
  102247:	ff 75 0c             	pushl  0xc(%ebp)
  10224a:	e8 20 f7 ff ff       	call   10196f <testbits>
  10224f:	83 c4 10             	add    $0x10,%esp
  102252:	8d 14 85 00 00 00 00 	lea    0x0(,%eax,4),%edx
  102259:	8b 45 f4             	mov    -0xc(%ebp),%eax
  10225c:	01 d0                	add    %edx,%eax
  10225e:	8b 00                	mov    (%eax),%eax
  102260:	25 00 f0 ff ff       	and    $0xfffff000,%eax
  102265:	89 45 f0             	mov    %eax,-0x10(%ebp)
  102268:	83 ec 04             	sub    $0x4,%esp
  10226b:	6a 16                	push   $0x16
  10226d:	6a 0c                	push   $0xc
  10226f:	ff 75 0c             	pushl  0xc(%ebp)
  102272:	e8 f8 f6 ff ff       	call   10196f <testbits>
  102277:	83 c4 10             	add    $0x10,%esp
  10227a:	8d 14 85 00 00 00 00 	lea    0x0(,%eax,4),%edx
  102281:	8b 45 f0             	mov    -0x10(%ebp),%eax
  102284:	01 d0                	add    %edx,%eax
  102286:	8b 00                	mov    (%eax),%eax
  102288:	25 00 f0 ff ff       	and    $0xfffff000,%eax
  10228d:	89 c2                	mov    %eax,%edx
  10228f:	8b 45 0c             	mov    0xc(%ebp),%eax
  102292:	25 ff 0f 00 00       	and    $0xfff,%eax
  102297:	01 d0                	add    %edx,%eax
  102299:	c9                   	leave  
  10229a:	c3                   	ret    

0010229b <has_addr>:
  10229b:	55                   	push   %ebp
  10229c:	89 e5                	mov    %esp,%ebp
  10229e:	83 ec 18             	sub    $0x18,%esp
  1022a1:	8b 45 08             	mov    0x8(%ebp),%eax
  1022a4:	89 45 f4             	mov    %eax,-0xc(%ebp)
  1022a7:	83 ec 04             	sub    $0x4,%esp
  1022aa:	6a 20                	push   $0x20
  1022ac:	6a 16                	push   $0x16
  1022ae:	ff 75 0c             	pushl  0xc(%ebp)
  1022b1:	e8 b9 f6 ff ff       	call   10196f <testbits>
  1022b6:	83 c4 10             	add    $0x10,%esp
  1022b9:	8d 14 85 00 00 00 00 	lea    0x0(,%eax,4),%edx
  1022c0:	8b 45 f4             	mov    -0xc(%ebp),%eax
  1022c3:	01 d0                	add    %edx,%eax
  1022c5:	8b 00                	mov    (%eax),%eax
  1022c7:	89 45 f0             	mov    %eax,-0x10(%ebp)
  1022ca:	83 ec 08             	sub    $0x8,%esp
  1022cd:	6a 00                	push   $0x0
  1022cf:	ff 75 f0             	pushl  -0x10(%ebp)
  1022d2:	e8 d8 f6 ff ff       	call   1019af <testbit>
  1022d7:	83 c4 10             	add    $0x10,%esp
  1022da:	83 f0 01             	xor    $0x1,%eax
  1022dd:	84 c0                	test   %al,%al
  1022df:	74 04                	je     1022e5 <has_addr+0x4a>
  1022e1:	b0 00                	mov    $0x0,%al
  1022e3:	eb 39                	jmp    10231e <has_addr+0x83>
  1022e5:	8b 45 f0             	mov    -0x10(%ebp),%eax
  1022e8:	25 00 f0 ff ff       	and    $0xfffff000,%eax
  1022ed:	89 45 ec             	mov    %eax,-0x14(%ebp)
  1022f0:	83 ec 04             	sub    $0x4,%esp
  1022f3:	6a 16                	push   $0x16
  1022f5:	6a 0c                	push   $0xc
  1022f7:	ff 75 0c             	pushl  0xc(%ebp)
  1022fa:	e8 70 f6 ff ff       	call   10196f <testbits>
  1022ff:	83 c4 10             	add    $0x10,%esp
  102302:	8d 14 85 00 00 00 00 	lea    0x0(,%eax,4),%edx
  102309:	8b 45 ec             	mov    -0x14(%ebp),%eax
  10230c:	01 d0                	add    %edx,%eax
  10230e:	8b 00                	mov    (%eax),%eax
  102310:	83 ec 08             	sub    $0x8,%esp
  102313:	6a 00                	push   $0x0
  102315:	50                   	push   %eax
  102316:	e8 94 f6 ff ff       	call   1019af <testbit>
  10231b:	83 c4 10             	add    $0x10,%esp
  10231e:	c9                   	leave  
  10231f:	c3                   	ret    

00102320 <p_malloc>:
  102320:	55                   	push   %ebp
  102321:	89 e5                	mov    %esp,%ebp
  102323:	83 ec 18             	sub    $0x18,%esp
  102326:	83 ec 08             	sub    $0x8,%esp
  102329:	6a 00                	push   $0x0
  10232b:	68 00 d0 23 00       	push   $0x23d000
  102330:	e8 de f8 ff ff       	call   101c13 <bit_alloc>
  102335:	83 c4 10             	add    $0x10,%esp
  102338:	89 45 f4             	mov    %eax,-0xc(%ebp)
  10233b:	83 7d f4 ff          	cmpl   $0xffffffff,-0xc(%ebp)
  10233f:	74 08                	je     102349 <p_malloc+0x29>
  102341:	8b 45 f4             	mov    -0xc(%ebp),%eax
  102344:	c1 e0 0c             	shl    $0xc,%eax
  102347:	eb 05                	jmp    10234e <p_malloc+0x2e>
  102349:	b8 ff ff ff ff       	mov    $0xffffffff,%eax
  10234e:	c9                   	leave  
  10234f:	c3                   	ret    

00102350 <p_free>:
  102350:	55                   	push   %ebp
  102351:	89 e5                	mov    %esp,%ebp
  102353:	83 ec 08             	sub    $0x8,%esp
  102356:	8b 45 08             	mov    0x8(%ebp),%eax
  102359:	25 ff 0f 00 00       	and    $0xfff,%eax
  10235e:	85 c0                	test   %eax,%eax
  102360:	74 12                	je     102374 <p_free+0x24>
  102362:	83 ec 0c             	sub    $0xc,%esp
  102365:	68 e0 42 10 00       	push   $0x1042e0
  10236a:	e8 12 e7 ff ff       	call   100a81 <printf>
  10236f:	83 c4 10             	add    $0x10,%esp
  102372:	eb ee                	jmp    102362 <p_free+0x12>
  102374:	8b 45 08             	mov    0x8(%ebp),%eax
  102377:	85 c0                	test   %eax,%eax
  102379:	79 05                	jns    102380 <p_free+0x30>
  10237b:	05 ff 0f 00 00       	add    $0xfff,%eax
  102380:	c1 f8 0c             	sar    $0xc,%eax
  102383:	83 ec 04             	sub    $0x4,%esp
  102386:	6a 00                	push   $0x0
  102388:	50                   	push   %eax
  102389:	68 00 d0 23 00       	push   $0x23d000
  10238e:	e8 68 f9 ff ff       	call   101cfb <bit_free>
  102393:	83 c4 10             	add    $0x10,%esp
  102396:	90                   	nop
  102397:	c9                   	leave  
  102398:	c3                   	ret    

00102399 <copy_pts>:
  102399:	55                   	push   %ebp
  10239a:	89 e5                	mov    %esp,%ebp
  10239c:	83 ec 08             	sub    $0x8,%esp
  10239f:	8b 55 08             	mov    0x8(%ebp),%edx
  1023a2:	8b 45 0c             	mov    0xc(%ebp),%eax
  1023a5:	83 ec 04             	sub    $0x4,%esp
  1023a8:	68 00 10 00 00       	push   $0x1000
  1023ad:	52                   	push   %edx
  1023ae:	50                   	push   %eax
  1023af:	e8 6d f3 ff ff       	call   101721 <memcpy>
  1023b4:	83 c4 10             	add    $0x10,%esp
  1023b7:	90                   	nop
  1023b8:	c9                   	leave  
  1023b9:	c3                   	ret    

001023ba <read_cr3>:
  1023ba:	55                   	push   %ebp
  1023bb:	89 e5                	mov    %esp,%ebp
  1023bd:	83 ec 10             	sub    $0x10,%esp
  1023c0:	0f 20 d8             	mov    %cr3,%eax
  1023c3:	89 45 fc             	mov    %eax,-0x4(%ebp)
  1023c6:	8b 45 fc             	mov    -0x4(%ebp),%eax
  1023c9:	c9                   	leave  
  1023ca:	c3                   	ret    

001023cb <inb>:
  1023cb:	55                   	push   %ebp
  1023cc:	89 e5                	mov    %esp,%ebp
  1023ce:	83 ec 14             	sub    $0x14,%esp
  1023d1:	8b 45 08             	mov    0x8(%ebp),%eax
  1023d4:	66 89 45 ec          	mov    %ax,-0x14(%ebp)
  1023d8:	8b 45 ec             	mov    -0x14(%ebp),%eax
  1023db:	89 c2                	mov    %eax,%edx
  1023dd:	ec                   	in     (%dx),%al
  1023de:	88 45 ff             	mov    %al,-0x1(%ebp)
  1023e1:	8a 45 ff             	mov    -0x1(%ebp),%al
  1023e4:	c9                   	leave  
  1023e5:	c3                   	ret    

001023e6 <inw>:
  1023e6:	55                   	push   %ebp
  1023e7:	89 e5                	mov    %esp,%ebp
  1023e9:	83 ec 14             	sub    $0x14,%esp
  1023ec:	8b 45 08             	mov    0x8(%ebp),%eax
  1023ef:	66 89 45 ec          	mov    %ax,-0x14(%ebp)
  1023f3:	8b 45 ec             	mov    -0x14(%ebp),%eax
  1023f6:	89 c2                	mov    %eax,%edx
  1023f8:	66 ed                	in     (%dx),%ax
  1023fa:	66 89 45 fe          	mov    %ax,-0x2(%ebp)
  1023fe:	66 8b 45 fe          	mov    -0x2(%ebp),%ax
  102402:	c9                   	leave  
  102403:	c3                   	ret    

00102404 <outb>:
  102404:	55                   	push   %ebp
  102405:	89 e5                	mov    %esp,%ebp
  102407:	83 ec 08             	sub    $0x8,%esp
  10240a:	8b 45 08             	mov    0x8(%ebp),%eax
  10240d:	8b 55 0c             	mov    0xc(%ebp),%edx
  102410:	66 89 45 fc          	mov    %ax,-0x4(%ebp)
  102414:	88 d0                	mov    %dl,%al
  102416:	88 45 f8             	mov    %al,-0x8(%ebp)
  102419:	8b 55 fc             	mov    -0x4(%ebp),%edx
  10241c:	8a 45 f8             	mov    -0x8(%ebp),%al
  10241f:	ee                   	out    %al,(%dx)
  102420:	90                   	nop
  102421:	c9                   	leave  
  102422:	c3                   	ret    

00102423 <outw>:
  102423:	55                   	push   %ebp
  102424:	89 e5                	mov    %esp,%ebp
  102426:	83 ec 08             	sub    $0x8,%esp
  102429:	8b 55 08             	mov    0x8(%ebp),%edx
  10242c:	8b 45 0c             	mov    0xc(%ebp),%eax
  10242f:	66 89 55 fc          	mov    %dx,-0x4(%ebp)
  102433:	66 89 45 f8          	mov    %ax,-0x8(%ebp)
  102437:	8b 55 fc             	mov    -0x4(%ebp),%edx
  10243a:	8b 45 f8             	mov    -0x8(%ebp),%eax
  10243d:	66 ef                	out    %ax,(%dx)
  10243f:	90                   	nop
  102440:	c9                   	leave  
  102441:	c3                   	ret    

00102442 <read_disk>:
  102442:	55                   	push   %ebp
  102443:	89 e5                	mov    %esp,%ebp
  102445:	53                   	push   %ebx
  102446:	83 ec 10             	sub    $0x10,%esp
  102449:	68 e0 00 00 00       	push   $0xe0
  10244e:	68 f6 01 00 00       	push   $0x1f6
  102453:	e8 ac ff ff ff       	call   102404 <outb>
  102458:	83 c4 08             	add    $0x8,%esp
  10245b:	8b 45 0c             	mov    0xc(%ebp),%eax
  10245e:	c1 e8 08             	shr    $0x8,%eax
  102461:	0f b6 c0             	movzbl %al,%eax
  102464:	50                   	push   %eax
  102465:	68 f2 01 00 00       	push   $0x1f2
  10246a:	e8 95 ff ff ff       	call   102404 <outb>
  10246f:	83 c4 08             	add    $0x8,%esp
  102472:	8b 45 08             	mov    0x8(%ebp),%eax
  102475:	c1 e8 18             	shr    $0x18,%eax
  102478:	0f b6 c0             	movzbl %al,%eax
  10247b:	50                   	push   %eax
  10247c:	68 f3 01 00 00       	push   $0x1f3
  102481:	e8 7e ff ff ff       	call   102404 <outb>
  102486:	83 c4 08             	add    $0x8,%esp
  102489:	6a 00                	push   $0x0
  10248b:	68 f4 01 00 00       	push   $0x1f4
  102490:	e8 6f ff ff ff       	call   102404 <outb>
  102495:	83 c4 08             	add    $0x8,%esp
  102498:	6a 00                	push   $0x0
  10249a:	68 f5 01 00 00       	push   $0x1f5
  10249f:	e8 60 ff ff ff       	call   102404 <outb>
  1024a4:	83 c4 08             	add    $0x8,%esp
  1024a7:	8b 45 0c             	mov    0xc(%ebp),%eax
  1024aa:	0f b6 c0             	movzbl %al,%eax
  1024ad:	50                   	push   %eax
  1024ae:	68 f2 01 00 00       	push   $0x1f2
  1024b3:	e8 4c ff ff ff       	call   102404 <outb>
  1024b8:	83 c4 08             	add    $0x8,%esp
  1024bb:	8b 45 08             	mov    0x8(%ebp),%eax
  1024be:	0f b6 c0             	movzbl %al,%eax
  1024c1:	50                   	push   %eax
  1024c2:	68 f3 01 00 00       	push   $0x1f3
  1024c7:	e8 38 ff ff ff       	call   102404 <outb>
  1024cc:	83 c4 08             	add    $0x8,%esp
  1024cf:	8b 45 08             	mov    0x8(%ebp),%eax
  1024d2:	c1 e8 08             	shr    $0x8,%eax
  1024d5:	0f b6 c0             	movzbl %al,%eax
  1024d8:	50                   	push   %eax
  1024d9:	68 f4 01 00 00       	push   $0x1f4
  1024de:	e8 21 ff ff ff       	call   102404 <outb>
  1024e3:	83 c4 08             	add    $0x8,%esp
  1024e6:	8b 45 08             	mov    0x8(%ebp),%eax
  1024e9:	c1 e8 10             	shr    $0x10,%eax
  1024ec:	0f b6 c0             	movzbl %al,%eax
  1024ef:	50                   	push   %eax
  1024f0:	68 f5 01 00 00       	push   $0x1f5
  1024f5:	e8 0a ff ff ff       	call   102404 <outb>
  1024fa:	83 c4 08             	add    $0x8,%esp
  1024fd:	6a 24                	push   $0x24
  1024ff:	68 f7 01 00 00       	push   $0x1f7
  102504:	e8 fb fe ff ff       	call   102404 <outb>
  102509:	83 c4 08             	add    $0x8,%esp
  10250c:	8b 45 10             	mov    0x10(%ebp),%eax
  10250f:	89 45 f8             	mov    %eax,-0x8(%ebp)
  102512:	eb 49                	jmp    10255d <read_disk+0x11b>
  102514:	90                   	nop
  102515:	68 f7 01 00 00       	push   $0x1f7
  10251a:	e8 ac fe ff ff       	call   1023cb <inb>
  10251f:	83 c4 04             	add    $0x4,%esp
  102522:	0f b6 c0             	movzbl %al,%eax
  102525:	25 88 00 00 00       	and    $0x88,%eax
  10252a:	83 f8 08             	cmp    $0x8,%eax
  10252d:	75 e6                	jne    102515 <read_disk+0xd3>
  10252f:	c7 45 f4 00 00 00 00 	movl   $0x0,-0xc(%ebp)
  102536:	eb 1c                	jmp    102554 <read_disk+0x112>
  102538:	8b 5d f8             	mov    -0x8(%ebp),%ebx
  10253b:	8d 43 02             	lea    0x2(%ebx),%eax
  10253e:	89 45 f8             	mov    %eax,-0x8(%ebp)
  102541:	68 f0 01 00 00       	push   $0x1f0
  102546:	e8 9b fe ff ff       	call   1023e6 <inw>
  10254b:	83 c4 04             	add    $0x4,%esp
  10254e:	66 89 03             	mov    %ax,(%ebx)
  102551:	ff 45 f4             	incl   -0xc(%ebp)
  102554:	81 7d f4 ff 00 00 00 	cmpl   $0xff,-0xc(%ebp)
  10255b:	7e db                	jle    102538 <read_disk+0xf6>
  10255d:	8b 45 0c             	mov    0xc(%ebp),%eax
  102560:	8d 50 ff             	lea    -0x1(%eax),%edx
  102563:	89 55 0c             	mov    %edx,0xc(%ebp)
  102566:	85 c0                	test   %eax,%eax
  102568:	75 aa                	jne    102514 <read_disk+0xd2>
  10256a:	90                   	nop
  10256b:	8b 5d fc             	mov    -0x4(%ebp),%ebx
  10256e:	c9                   	leave  
  10256f:	c3                   	ret    

00102570 <write_disk>:
  102570:	55                   	push   %ebp
  102571:	89 e5                	mov    %esp,%ebp
  102573:	83 ec 10             	sub    $0x10,%esp
  102576:	68 e0 00 00 00       	push   $0xe0
  10257b:	68 f6 01 00 00       	push   $0x1f6
  102580:	e8 7f fe ff ff       	call   102404 <outb>
  102585:	83 c4 08             	add    $0x8,%esp
  102588:	8b 45 0c             	mov    0xc(%ebp),%eax
  10258b:	c1 e8 08             	shr    $0x8,%eax
  10258e:	0f b6 c0             	movzbl %al,%eax
  102591:	50                   	push   %eax
  102592:	68 f2 01 00 00       	push   $0x1f2
  102597:	e8 68 fe ff ff       	call   102404 <outb>
  10259c:	83 c4 08             	add    $0x8,%esp
  10259f:	8b 45 08             	mov    0x8(%ebp),%eax
  1025a2:	c1 e8 18             	shr    $0x18,%eax
  1025a5:	0f b6 c0             	movzbl %al,%eax
  1025a8:	50                   	push   %eax
  1025a9:	68 f3 01 00 00       	push   $0x1f3
  1025ae:	e8 51 fe ff ff       	call   102404 <outb>
  1025b3:	83 c4 08             	add    $0x8,%esp
  1025b6:	6a 00                	push   $0x0
  1025b8:	68 f4 01 00 00       	push   $0x1f4
  1025bd:	e8 42 fe ff ff       	call   102404 <outb>
  1025c2:	83 c4 08             	add    $0x8,%esp
  1025c5:	6a 00                	push   $0x0
  1025c7:	68 f5 01 00 00       	push   $0x1f5
  1025cc:	e8 33 fe ff ff       	call   102404 <outb>
  1025d1:	83 c4 08             	add    $0x8,%esp
  1025d4:	8b 45 0c             	mov    0xc(%ebp),%eax
  1025d7:	0f b6 c0             	movzbl %al,%eax
  1025da:	50                   	push   %eax
  1025db:	68 f2 01 00 00       	push   $0x1f2
  1025e0:	e8 1f fe ff ff       	call   102404 <outb>
  1025e5:	83 c4 08             	add    $0x8,%esp
  1025e8:	8b 45 08             	mov    0x8(%ebp),%eax
  1025eb:	0f b6 c0             	movzbl %al,%eax
  1025ee:	50                   	push   %eax
  1025ef:	68 f3 01 00 00       	push   $0x1f3
  1025f4:	e8 0b fe ff ff       	call   102404 <outb>
  1025f9:	83 c4 08             	add    $0x8,%esp
  1025fc:	8b 45 08             	mov    0x8(%ebp),%eax
  1025ff:	c1 e8 08             	shr    $0x8,%eax
  102602:	0f b6 c0             	movzbl %al,%eax
  102605:	50                   	push   %eax
  102606:	68 f4 01 00 00       	push   $0x1f4
  10260b:	e8 f4 fd ff ff       	call   102404 <outb>
  102610:	83 c4 08             	add    $0x8,%esp
  102613:	8b 45 08             	mov    0x8(%ebp),%eax
  102616:	c1 e8 10             	shr    $0x10,%eax
  102619:	0f b6 c0             	movzbl %al,%eax
  10261c:	50                   	push   %eax
  10261d:	68 f5 01 00 00       	push   $0x1f5
  102622:	e8 dd fd ff ff       	call   102404 <outb>
  102627:	83 c4 08             	add    $0x8,%esp
  10262a:	6a 34                	push   $0x34
  10262c:	68 f7 01 00 00       	push   $0x1f7
  102631:	e8 ce fd ff ff       	call   102404 <outb>
  102636:	83 c4 08             	add    $0x8,%esp
  102639:	8b 45 10             	mov    0x10(%ebp),%eax
  10263c:	89 45 fc             	mov    %eax,-0x4(%ebp)
  10263f:	eb 4d                	jmp    10268e <write_disk+0x11e>
  102641:	90                   	nop
  102642:	68 f7 01 00 00       	push   $0x1f7
  102647:	e8 7f fd ff ff       	call   1023cb <inb>
  10264c:	83 c4 04             	add    $0x4,%esp
  10264f:	0f b6 c0             	movzbl %al,%eax
  102652:	25 88 00 00 00       	and    $0x88,%eax
  102657:	83 f8 08             	cmp    $0x8,%eax
  10265a:	75 e6                	jne    102642 <write_disk+0xd2>
  10265c:	c7 45 f8 00 00 00 00 	movl   $0x0,-0x8(%ebp)
  102663:	eb 20                	jmp    102685 <write_disk+0x115>
  102665:	8b 45 fc             	mov    -0x4(%ebp),%eax
  102668:	8d 50 02             	lea    0x2(%eax),%edx
  10266b:	89 55 fc             	mov    %edx,-0x4(%ebp)
  10266e:	66 8b 00             	mov    (%eax),%ax
  102671:	0f b7 c0             	movzwl %ax,%eax
  102674:	50                   	push   %eax
  102675:	68 f0 01 00 00       	push   $0x1f0
  10267a:	e8 a4 fd ff ff       	call   102423 <outw>
  10267f:	83 c4 08             	add    $0x8,%esp
  102682:	ff 45 f8             	incl   -0x8(%ebp)
  102685:	81 7d f8 ff 00 00 00 	cmpl   $0xff,-0x8(%ebp)
  10268c:	7e d7                	jle    102665 <write_disk+0xf5>
  10268e:	8b 45 0c             	mov    0xc(%ebp),%eax
  102691:	8d 50 ff             	lea    -0x1(%eax),%edx
  102694:	89 55 0c             	mov    %edx,0xc(%ebp)
  102697:	85 c0                	test   %eax,%eax
  102699:	75 a6                	jne    102641 <write_disk+0xd1>
  10269b:	68 e7 00 00 00       	push   $0xe7
  1026a0:	68 f7 01 00 00       	push   $0x1f7
  1026a5:	e8 5a fd ff ff       	call   102404 <outb>
  1026aa:	83 c4 08             	add    $0x8,%esp
  1026ad:	90                   	nop
  1026ae:	c9                   	leave  
  1026af:	c3                   	ret    

001026b0 <swap_out>:
  1026b0:	55                   	push   %ebp
  1026b1:	89 e5                	mov    %esp,%ebp
  1026b3:	90                   	nop
  1026b4:	5d                   	pop    %ebp
  1026b5:	c3                   	ret    

001026b6 <swap_in>:
  1026b6:	55                   	push   %ebp
  1026b7:	89 e5                	mov    %esp,%ebp
  1026b9:	83 ec 28             	sub    $0x28,%esp
  1026bc:	8b 45 0c             	mov    0xc(%ebp),%eax
  1026bf:	66 89 45 e4          	mov    %ax,-0x1c(%ebp)
  1026c3:	e8 f2 fc ff ff       	call   1023ba <read_cr3>
  1026c8:	89 45 f4             	mov    %eax,-0xc(%ebp)
  1026cb:	83 ec 08             	sub    $0x8,%esp
  1026ce:	ff 75 08             	pushl  0x8(%ebp)
  1026d1:	ff 75 f4             	pushl  -0xc(%ebp)
  1026d4:	e8 c2 fb ff ff       	call   10229b <has_addr>
  1026d9:	83 c4 10             	add    $0x10,%esp
  1026dc:	84 c0                	test   %al,%al
  1026de:	74 10                	je     1026f0 <swap_in+0x3a>
  1026e0:	83 ec 0c             	sub    $0xc,%esp
  1026e3:	68 04 43 10 00       	push   $0x104304
  1026e8:	e8 19 e6 ff ff       	call   100d06 <emphasize>
  1026ed:	83 c4 10             	add    $0x10,%esp
  1026f0:	83 ec 08             	sub    $0x8,%esp
  1026f3:	ff 75 08             	pushl  0x8(%ebp)
  1026f6:	ff 75 f4             	pushl  -0xc(%ebp)
  1026f9:	e8 5a 00 00 00       	call   102758 <swap_sector_of>
  1026fe:	83 c4 10             	add    $0x10,%esp
  102701:	89 45 f0             	mov    %eax,-0x10(%ebp)
  102704:	0f b7 45 e4          	movzwl -0x1c(%ebp),%eax
  102708:	83 ec 04             	sub    $0x4,%esp
  10270b:	50                   	push   %eax
  10270c:	ff 75 08             	pushl  0x8(%ebp)
  10270f:	ff 75 f4             	pushl  -0xc(%ebp)
  102712:	e8 b0 fa ff ff       	call   1021c7 <load_memory>
  102717:	83 c4 10             	add    $0x10,%esp
  10271a:	8b 55 08             	mov    0x8(%ebp),%edx
  10271d:	8b 45 f0             	mov    -0x10(%ebp),%eax
  102720:	83 ec 04             	sub    $0x4,%esp
  102723:	52                   	push   %edx
  102724:	6a 08                	push   $0x8
  102726:	50                   	push   %eax
  102727:	e8 16 fd ff ff       	call   102442 <read_disk>
  10272c:	83 c4 10             	add    $0x10,%esp
  10272f:	90                   	nop
  102730:	c9                   	leave  
  102731:	c3                   	ret    

00102732 <swap_alloc>:
  102732:	55                   	push   %ebp
  102733:	89 e5                	mov    %esp,%ebp
  102735:	83 ec 10             	sub    $0x10,%esp
  102738:	a1 04 60 11 00       	mov    0x116004,%eax
  10273d:	89 45 fc             	mov    %eax,-0x4(%ebp)
  102740:	a1 04 60 11 00       	mov    0x116004,%eax
  102745:	83 c0 08             	add    $0x8,%eax
  102748:	a3 04 60 11 00       	mov    %eax,0x116004
  10274d:	8b 45 fc             	mov    -0x4(%ebp),%eax
  102750:	c9                   	leave  
  102751:	c3                   	ret    

00102752 <swap_free>:
  102752:	55                   	push   %ebp
  102753:	89 e5                	mov    %esp,%ebp
  102755:	90                   	nop
  102756:	5d                   	pop    %ebp
  102757:	c3                   	ret    

00102758 <swap_sector_of>:
  102758:	55                   	push   %ebp
  102759:	89 e5                	mov    %esp,%ebp
  10275b:	83 ec 18             	sub    $0x18,%esp
  10275e:	83 ec 08             	sub    $0x8,%esp
  102761:	ff 75 0c             	pushl  0xc(%ebp)
  102764:	ff 75 08             	pushl  0x8(%ebp)
  102767:	e8 2f fb ff ff       	call   10229b <has_addr>
  10276c:	83 c4 10             	add    $0x10,%esp
  10276f:	84 c0                	test   %al,%al
  102771:	74 10                	je     102783 <swap_sector_of+0x2b>
  102773:	83 ec 0c             	sub    $0xc,%esp
  102776:	68 2c 43 10 00       	push   $0x10432c
  10277b:	e8 86 e5 ff ff       	call   100d06 <emphasize>
  102780:	83 c4 10             	add    $0x10,%esp
  102783:	8b 45 08             	mov    0x8(%ebp),%eax
  102786:	89 45 f4             	mov    %eax,-0xc(%ebp)
  102789:	83 ec 04             	sub    $0x4,%esp
  10278c:	6a 20                	push   $0x20
  10278e:	6a 16                	push   $0x16
  102790:	ff 75 0c             	pushl  0xc(%ebp)
  102793:	e8 d7 f1 ff ff       	call   10196f <testbits>
  102798:	83 c4 10             	add    $0x10,%esp
  10279b:	8d 14 85 00 00 00 00 	lea    0x0(,%eax,4),%edx
  1027a2:	8b 45 f4             	mov    -0xc(%ebp),%eax
  1027a5:	01 d0                	add    %edx,%eax
  1027a7:	8b 00                	mov    (%eax),%eax
  1027a9:	89 45 f0             	mov    %eax,-0x10(%ebp)
  1027ac:	83 ec 08             	sub    $0x8,%esp
  1027af:	6a 00                	push   $0x0
  1027b1:	ff 75 f0             	pushl  -0x10(%ebp)
  1027b4:	e8 f6 f1 ff ff       	call   1019af <testbit>
  1027b9:	83 c4 10             	add    $0x10,%esp
  1027bc:	83 f0 01             	xor    $0x1,%eax
  1027bf:	84 c0                	test   %al,%al
  1027c1:	74 07                	je     1027ca <swap_sector_of+0x72>
  1027c3:	b8 00 00 00 00       	mov    $0x0,%eax
  1027c8:	eb 2e                	jmp    1027f8 <swap_sector_of+0xa0>
  1027ca:	8b 45 f0             	mov    -0x10(%ebp),%eax
  1027cd:	25 00 f0 ff ff       	and    $0xfffff000,%eax
  1027d2:	89 45 ec             	mov    %eax,-0x14(%ebp)
  1027d5:	83 ec 04             	sub    $0x4,%esp
  1027d8:	6a 16                	push   $0x16
  1027da:	6a 0c                	push   $0xc
  1027dc:	ff 75 0c             	pushl  0xc(%ebp)
  1027df:	e8 8b f1 ff ff       	call   10196f <testbits>
  1027e4:	83 c4 10             	add    $0x10,%esp
  1027e7:	8d 14 85 00 00 00 00 	lea    0x0(,%eax,4),%edx
  1027ee:	8b 45 ec             	mov    -0x14(%ebp),%eax
  1027f1:	01 d0                	add    %edx,%eax
  1027f3:	8b 00                	mov    (%eax),%eax
  1027f5:	c1 e8 03             	shr    $0x3,%eax
  1027f8:	c9                   	leave  
  1027f9:	c3                   	ret    

001027fa <swap_sector_set>:
  1027fa:	55                   	push   %ebp
  1027fb:	89 e5                	mov    %esp,%ebp
  1027fd:	53                   	push   %ebx
  1027fe:	83 ec 14             	sub    $0x14,%esp
  102801:	8b 45 08             	mov    0x8(%ebp),%eax
  102804:	89 45 f4             	mov    %eax,-0xc(%ebp)
  102807:	83 ec 04             	sub    $0x4,%esp
  10280a:	6a 20                	push   $0x20
  10280c:	6a 16                	push   $0x16
  10280e:	ff 75 0c             	pushl  0xc(%ebp)
  102811:	e8 59 f1 ff ff       	call   10196f <testbits>
  102816:	83 c4 10             	add    $0x10,%esp
  102819:	8d 14 85 00 00 00 00 	lea    0x0(,%eax,4),%edx
  102820:	8b 45 f4             	mov    -0xc(%ebp),%eax
  102823:	01 d0                	add    %edx,%eax
  102825:	8b 00                	mov    (%eax),%eax
  102827:	89 45 f0             	mov    %eax,-0x10(%ebp)
  10282a:	8b 45 f0             	mov    -0x10(%ebp),%eax
  10282d:	25 00 f0 ff ff       	and    $0xfffff000,%eax
  102832:	89 45 ec             	mov    %eax,-0x14(%ebp)
  102835:	8b 45 10             	mov    0x10(%ebp),%eax
  102838:	8d 1c c5 00 00 00 00 	lea    0x0(,%eax,8),%ebx
  10283f:	83 ec 04             	sub    $0x4,%esp
  102842:	6a 16                	push   $0x16
  102844:	6a 0c                	push   $0xc
  102846:	ff 75 0c             	pushl  0xc(%ebp)
  102849:	e8 21 f1 ff ff       	call   10196f <testbits>
  10284e:	83 c4 10             	add    $0x10,%esp
  102851:	8d 14 85 00 00 00 00 	lea    0x0(,%eax,4),%edx
  102858:	8b 45 ec             	mov    -0x14(%ebp),%eax
  10285b:	01 d0                	add    %edx,%eax
  10285d:	89 da                	mov    %ebx,%edx
  10285f:	89 10                	mov    %edx,(%eax)
  102861:	90                   	nop
  102862:	8b 5d fc             	mov    -0x4(%ebp),%ebx
  102865:	c9                   	leave  
  102866:	c3                   	ret    

00102867 <on_page_fault>:
  102867:	55                   	push   %ebp
  102868:	89 e5                	mov    %esp,%ebp
  10286a:	83 ec 08             	sub    $0x8,%esp
  10286d:	83 ec 08             	sub    $0x8,%esp
  102870:	6a 03                	push   $0x3
  102872:	ff 75 08             	pushl  0x8(%ebp)
  102875:	e8 3c fe ff ff       	call   1026b6 <swap_in>
  10287a:	83 c4 10             	add    $0x10,%esp
  10287d:	90                   	nop
  10287e:	c9                   	leave  
  10287f:	c3                   	ret    

00102880 <page_fault_handler>:
  102880:	60                   	pusha  
  102881:	1e                   	push   %ds
  102882:	8b 44 24 24          	mov    0x24(%esp),%eax
  102886:	0f 20 d3             	mov    %cr2,%ebx
  102889:	50                   	push   %eax
  10288a:	53                   	push   %ebx
  10288b:	e8 d7 ff ff ff       	call   102867 <on_page_fault>
  102890:	81 c4 08 00 00 00    	add    $0x8,%esp
  102896:	1f                   	pop    %ds
  102897:	61                   	popa   
  102898:	81 c4 04 00 00 00    	add    $0x4,%esp
  10289e:	cf                   	iret   

0010289f <inb>:
  10289f:	55                   	push   %ebp
  1028a0:	89 e5                	mov    %esp,%ebp
  1028a2:	83 ec 14             	sub    $0x14,%esp
  1028a5:	8b 45 08             	mov    0x8(%ebp),%eax
  1028a8:	66 89 45 ec          	mov    %ax,-0x14(%ebp)
  1028ac:	8b 45 ec             	mov    -0x14(%ebp),%eax
  1028af:	89 c2                	mov    %eax,%edx
  1028b1:	ec                   	in     (%dx),%al
  1028b2:	88 45 ff             	mov    %al,-0x1(%ebp)
  1028b5:	8a 45 ff             	mov    -0x1(%ebp),%al
  1028b8:	c9                   	leave  
  1028b9:	c3                   	ret    

001028ba <inw>:
  1028ba:	55                   	push   %ebp
  1028bb:	89 e5                	mov    %esp,%ebp
  1028bd:	83 ec 14             	sub    $0x14,%esp
  1028c0:	8b 45 08             	mov    0x8(%ebp),%eax
  1028c3:	66 89 45 ec          	mov    %ax,-0x14(%ebp)
  1028c7:	8b 45 ec             	mov    -0x14(%ebp),%eax
  1028ca:	89 c2                	mov    %eax,%edx
  1028cc:	66 ed                	in     (%dx),%ax
  1028ce:	66 89 45 fe          	mov    %ax,-0x2(%ebp)
  1028d2:	66 8b 45 fe          	mov    -0x2(%ebp),%ax
  1028d6:	c9                   	leave  
  1028d7:	c3                   	ret    

001028d8 <outb>:
  1028d8:	55                   	push   %ebp
  1028d9:	89 e5                	mov    %esp,%ebp
  1028db:	83 ec 08             	sub    $0x8,%esp
  1028de:	8b 45 08             	mov    0x8(%ebp),%eax
  1028e1:	8b 55 0c             	mov    0xc(%ebp),%edx
  1028e4:	66 89 45 fc          	mov    %ax,-0x4(%ebp)
  1028e8:	88 d0                	mov    %dl,%al
  1028ea:	88 45 f8             	mov    %al,-0x8(%ebp)
  1028ed:	8b 55 fc             	mov    -0x4(%ebp),%edx
  1028f0:	8a 45 f8             	mov    -0x8(%ebp),%al
  1028f3:	ee                   	out    %al,(%dx)
  1028f4:	90                   	nop
  1028f5:	c9                   	leave  
  1028f6:	c3                   	ret    

001028f7 <outw>:
  1028f7:	55                   	push   %ebp
  1028f8:	89 e5                	mov    %esp,%ebp
  1028fa:	83 ec 08             	sub    $0x8,%esp
  1028fd:	8b 55 08             	mov    0x8(%ebp),%edx
  102900:	8b 45 0c             	mov    0xc(%ebp),%eax
  102903:	66 89 55 fc          	mov    %dx,-0x4(%ebp)
  102907:	66 89 45 f8          	mov    %ax,-0x8(%ebp)
  10290b:	8b 55 fc             	mov    -0x4(%ebp),%edx
  10290e:	8b 45 f8             	mov    -0x8(%ebp),%eax
  102911:	66 ef                	out    %ax,(%dx)
  102913:	90                   	nop
  102914:	c9                   	leave  
  102915:	c3                   	ret    

00102916 <read_disk>:
  102916:	55                   	push   %ebp
  102917:	89 e5                	mov    %esp,%ebp
  102919:	53                   	push   %ebx
  10291a:	83 ec 10             	sub    $0x10,%esp
  10291d:	68 e0 00 00 00       	push   $0xe0
  102922:	68 f6 01 00 00       	push   $0x1f6
  102927:	e8 ac ff ff ff       	call   1028d8 <outb>
  10292c:	83 c4 08             	add    $0x8,%esp
  10292f:	8b 45 0c             	mov    0xc(%ebp),%eax
  102932:	c1 e8 08             	shr    $0x8,%eax
  102935:	0f b6 c0             	movzbl %al,%eax
  102938:	50                   	push   %eax
  102939:	68 f2 01 00 00       	push   $0x1f2
  10293e:	e8 95 ff ff ff       	call   1028d8 <outb>
  102943:	83 c4 08             	add    $0x8,%esp
  102946:	8b 45 08             	mov    0x8(%ebp),%eax
  102949:	c1 e8 18             	shr    $0x18,%eax
  10294c:	0f b6 c0             	movzbl %al,%eax
  10294f:	50                   	push   %eax
  102950:	68 f3 01 00 00       	push   $0x1f3
  102955:	e8 7e ff ff ff       	call   1028d8 <outb>
  10295a:	83 c4 08             	add    $0x8,%esp
  10295d:	6a 00                	push   $0x0
  10295f:	68 f4 01 00 00       	push   $0x1f4
  102964:	e8 6f ff ff ff       	call   1028d8 <outb>
  102969:	83 c4 08             	add    $0x8,%esp
  10296c:	6a 00                	push   $0x0
  10296e:	68 f5 01 00 00       	push   $0x1f5
  102973:	e8 60 ff ff ff       	call   1028d8 <outb>
  102978:	83 c4 08             	add    $0x8,%esp
  10297b:	8b 45 0c             	mov    0xc(%ebp),%eax
  10297e:	0f b6 c0             	movzbl %al,%eax
  102981:	50                   	push   %eax
  102982:	68 f2 01 00 00       	push   $0x1f2
  102987:	e8 4c ff ff ff       	call   1028d8 <outb>
  10298c:	83 c4 08             	add    $0x8,%esp
  10298f:	8b 45 08             	mov    0x8(%ebp),%eax
  102992:	0f b6 c0             	movzbl %al,%eax
  102995:	50                   	push   %eax
  102996:	68 f3 01 00 00       	push   $0x1f3
  10299b:	e8 38 ff ff ff       	call   1028d8 <outb>
  1029a0:	83 c4 08             	add    $0x8,%esp
  1029a3:	8b 45 08             	mov    0x8(%ebp),%eax
  1029a6:	c1 e8 08             	shr    $0x8,%eax
  1029a9:	0f b6 c0             	movzbl %al,%eax
  1029ac:	50                   	push   %eax
  1029ad:	68 f4 01 00 00       	push   $0x1f4
  1029b2:	e8 21 ff ff ff       	call   1028d8 <outb>
  1029b7:	83 c4 08             	add    $0x8,%esp
  1029ba:	8b 45 08             	mov    0x8(%ebp),%eax
  1029bd:	c1 e8 10             	shr    $0x10,%eax
  1029c0:	0f b6 c0             	movzbl %al,%eax
  1029c3:	50                   	push   %eax
  1029c4:	68 f5 01 00 00       	push   $0x1f5
  1029c9:	e8 0a ff ff ff       	call   1028d8 <outb>
  1029ce:	83 c4 08             	add    $0x8,%esp
  1029d1:	6a 24                	push   $0x24
  1029d3:	68 f7 01 00 00       	push   $0x1f7
  1029d8:	e8 fb fe ff ff       	call   1028d8 <outb>
  1029dd:	83 c4 08             	add    $0x8,%esp
  1029e0:	8b 45 10             	mov    0x10(%ebp),%eax
  1029e3:	89 45 f8             	mov    %eax,-0x8(%ebp)
  1029e6:	eb 49                	jmp    102a31 <read_disk+0x11b>
  1029e8:	90                   	nop
  1029e9:	68 f7 01 00 00       	push   $0x1f7
  1029ee:	e8 ac fe ff ff       	call   10289f <inb>
  1029f3:	83 c4 04             	add    $0x4,%esp
  1029f6:	0f b6 c0             	movzbl %al,%eax
  1029f9:	25 88 00 00 00       	and    $0x88,%eax
  1029fe:	83 f8 08             	cmp    $0x8,%eax
  102a01:	75 e6                	jne    1029e9 <read_disk+0xd3>
  102a03:	c7 45 f4 00 00 00 00 	movl   $0x0,-0xc(%ebp)
  102a0a:	eb 1c                	jmp    102a28 <read_disk+0x112>
  102a0c:	8b 5d f8             	mov    -0x8(%ebp),%ebx
  102a0f:	8d 43 02             	lea    0x2(%ebx),%eax
  102a12:	89 45 f8             	mov    %eax,-0x8(%ebp)
  102a15:	68 f0 01 00 00       	push   $0x1f0
  102a1a:	e8 9b fe ff ff       	call   1028ba <inw>
  102a1f:	83 c4 04             	add    $0x4,%esp
  102a22:	66 89 03             	mov    %ax,(%ebx)
  102a25:	ff 45 f4             	incl   -0xc(%ebp)
  102a28:	81 7d f4 ff 00 00 00 	cmpl   $0xff,-0xc(%ebp)
  102a2f:	7e db                	jle    102a0c <read_disk+0xf6>
  102a31:	8b 45 0c             	mov    0xc(%ebp),%eax
  102a34:	8d 50 ff             	lea    -0x1(%eax),%edx
  102a37:	89 55 0c             	mov    %edx,0xc(%ebp)
  102a3a:	85 c0                	test   %eax,%eax
  102a3c:	75 aa                	jne    1029e8 <read_disk+0xd2>
  102a3e:	90                   	nop
  102a3f:	8b 5d fc             	mov    -0x4(%ebp),%ebx
  102a42:	c9                   	leave  
  102a43:	c3                   	ret    

00102a44 <write_disk>:
  102a44:	55                   	push   %ebp
  102a45:	89 e5                	mov    %esp,%ebp
  102a47:	83 ec 10             	sub    $0x10,%esp
  102a4a:	68 e0 00 00 00       	push   $0xe0
  102a4f:	68 f6 01 00 00       	push   $0x1f6
  102a54:	e8 7f fe ff ff       	call   1028d8 <outb>
  102a59:	83 c4 08             	add    $0x8,%esp
  102a5c:	8b 45 0c             	mov    0xc(%ebp),%eax
  102a5f:	c1 e8 08             	shr    $0x8,%eax
  102a62:	0f b6 c0             	movzbl %al,%eax
  102a65:	50                   	push   %eax
  102a66:	68 f2 01 00 00       	push   $0x1f2
  102a6b:	e8 68 fe ff ff       	call   1028d8 <outb>
  102a70:	83 c4 08             	add    $0x8,%esp
  102a73:	8b 45 08             	mov    0x8(%ebp),%eax
  102a76:	c1 e8 18             	shr    $0x18,%eax
  102a79:	0f b6 c0             	movzbl %al,%eax
  102a7c:	50                   	push   %eax
  102a7d:	68 f3 01 00 00       	push   $0x1f3
  102a82:	e8 51 fe ff ff       	call   1028d8 <outb>
  102a87:	83 c4 08             	add    $0x8,%esp
  102a8a:	6a 00                	push   $0x0
  102a8c:	68 f4 01 00 00       	push   $0x1f4
  102a91:	e8 42 fe ff ff       	call   1028d8 <outb>
  102a96:	83 c4 08             	add    $0x8,%esp
  102a99:	6a 00                	push   $0x0
  102a9b:	68 f5 01 00 00       	push   $0x1f5
  102aa0:	e8 33 fe ff ff       	call   1028d8 <outb>
  102aa5:	83 c4 08             	add    $0x8,%esp
  102aa8:	8b 45 0c             	mov    0xc(%ebp),%eax
  102aab:	0f b6 c0             	movzbl %al,%eax
  102aae:	50                   	push   %eax
  102aaf:	68 f2 01 00 00       	push   $0x1f2
  102ab4:	e8 1f fe ff ff       	call   1028d8 <outb>
  102ab9:	83 c4 08             	add    $0x8,%esp
  102abc:	8b 45 08             	mov    0x8(%ebp),%eax
  102abf:	0f b6 c0             	movzbl %al,%eax
  102ac2:	50                   	push   %eax
  102ac3:	68 f3 01 00 00       	push   $0x1f3
  102ac8:	e8 0b fe ff ff       	call   1028d8 <outb>
  102acd:	83 c4 08             	add    $0x8,%esp
  102ad0:	8b 45 08             	mov    0x8(%ebp),%eax
  102ad3:	c1 e8 08             	shr    $0x8,%eax
  102ad6:	0f b6 c0             	movzbl %al,%eax
  102ad9:	50                   	push   %eax
  102ada:	68 f4 01 00 00       	push   $0x1f4
  102adf:	e8 f4 fd ff ff       	call   1028d8 <outb>
  102ae4:	83 c4 08             	add    $0x8,%esp
  102ae7:	8b 45 08             	mov    0x8(%ebp),%eax
  102aea:	c1 e8 10             	shr    $0x10,%eax
  102aed:	0f b6 c0             	movzbl %al,%eax
  102af0:	50                   	push   %eax
  102af1:	68 f5 01 00 00       	push   $0x1f5
  102af6:	e8 dd fd ff ff       	call   1028d8 <outb>
  102afb:	83 c4 08             	add    $0x8,%esp
  102afe:	6a 34                	push   $0x34
  102b00:	68 f7 01 00 00       	push   $0x1f7
  102b05:	e8 ce fd ff ff       	call   1028d8 <outb>
  102b0a:	83 c4 08             	add    $0x8,%esp
  102b0d:	8b 45 10             	mov    0x10(%ebp),%eax
  102b10:	89 45 fc             	mov    %eax,-0x4(%ebp)
  102b13:	eb 4d                	jmp    102b62 <write_disk+0x11e>
  102b15:	90                   	nop
  102b16:	68 f7 01 00 00       	push   $0x1f7
  102b1b:	e8 7f fd ff ff       	call   10289f <inb>
  102b20:	83 c4 04             	add    $0x4,%esp
  102b23:	0f b6 c0             	movzbl %al,%eax
  102b26:	25 88 00 00 00       	and    $0x88,%eax
  102b2b:	83 f8 08             	cmp    $0x8,%eax
  102b2e:	75 e6                	jne    102b16 <write_disk+0xd2>
  102b30:	c7 45 f8 00 00 00 00 	movl   $0x0,-0x8(%ebp)
  102b37:	eb 20                	jmp    102b59 <write_disk+0x115>
  102b39:	8b 45 fc             	mov    -0x4(%ebp),%eax
  102b3c:	8d 50 02             	lea    0x2(%eax),%edx
  102b3f:	89 55 fc             	mov    %edx,-0x4(%ebp)
  102b42:	66 8b 00             	mov    (%eax),%ax
  102b45:	0f b7 c0             	movzwl %ax,%eax
  102b48:	50                   	push   %eax
  102b49:	68 f0 01 00 00       	push   $0x1f0
  102b4e:	e8 a4 fd ff ff       	call   1028f7 <outw>
  102b53:	83 c4 08             	add    $0x8,%esp
  102b56:	ff 45 f8             	incl   -0x8(%ebp)
  102b59:	81 7d f8 ff 00 00 00 	cmpl   $0xff,-0x8(%ebp)
  102b60:	7e d7                	jle    102b39 <write_disk+0xf5>
  102b62:	8b 45 0c             	mov    0xc(%ebp),%eax
  102b65:	8d 50 ff             	lea    -0x1(%eax),%edx
  102b68:	89 55 0c             	mov    %edx,0xc(%ebp)
  102b6b:	85 c0                	test   %eax,%eax
  102b6d:	75 a6                	jne    102b15 <write_disk+0xd1>
  102b6f:	68 e7 00 00 00       	push   $0xe7
  102b74:	68 f7 01 00 00       	push   $0x1f7
  102b79:	e8 5a fd ff ff       	call   1028d8 <outb>
  102b7e:	83 c4 08             	add    $0x8,%esp
  102b81:	90                   	nop
  102b82:	c9                   	leave  
  102b83:	c3                   	ret    

00102b84 <sys_execve>:
  102b84:	55                   	push   %ebp
  102b85:	89 e5                	mov    %esp,%ebp
  102b87:	81 ec 88 12 00 00    	sub    $0x1288,%esp
  102b8d:	83 ec 08             	sub    $0x8,%esp
  102b90:	8d 85 80 ed ff ff    	lea    -0x1280(%ebp),%eax
  102b96:	50                   	push   %eax
  102b97:	ff 75 08             	pushl  0x8(%ebp)
  102b9a:	e8 28 06 00 00       	call   1031c7 <load_file_cached>
  102b9f:	83 c4 10             	add    $0x10,%esp
  102ba2:	85 c0                	test   %eax,%eax
  102ba4:	0f 85 b6 00 00 00    	jne    102c60 <sys_execve+0xdc>
  102baa:	83 ec 08             	sub    $0x8,%esp
  102bad:	8d 85 ec ef ff ff    	lea    -0x1014(%ebp),%eax
  102bb3:	50                   	push   %eax
  102bb4:	8d 85 80 ed ff ff    	lea    -0x1280(%ebp),%eax
  102bba:	50                   	push   %eax
  102bbb:	e8 a8 05 00 00       	call   103168 <read_all>
  102bc0:	83 c4 10             	add    $0x10,%esp
  102bc3:	e8 6a fb ff ff       	call   102732 <swap_alloc>
  102bc8:	89 45 f4             	mov    %eax,-0xc(%ebp)
  102bcb:	8b 45 f4             	mov    -0xc(%ebp),%eax
  102bce:	83 ec 04             	sub    $0x4,%esp
  102bd1:	8d 95 ec ef ff ff    	lea    -0x1014(%ebp),%edx
  102bd7:	52                   	push   %edx
  102bd8:	6a 08                	push   $0x8
  102bda:	50                   	push   %eax
  102bdb:	e8 64 fe ff ff       	call   102a44 <write_disk>
  102be0:	83 c4 10             	add    $0x10,%esp
  102be3:	68 ff 00 00 00       	push   $0xff
  102be8:	68 fc ef ff ff       	push   $0xffffeffc
  102bed:	68 00 00 00 80       	push   $0x80000000
  102bf2:	6a 01                	push   $0x1
  102bf4:	e8 4a e5 ff ff       	call   101143 <create_task>
  102bf9:	83 c4 10             	add    $0x10,%esp
  102bfc:	0f b7 c0             	movzwl %ax,%eax
  102bff:	89 45 f0             	mov    %eax,-0x10(%ebp)
  102c02:	8b 55 f0             	mov    -0x10(%ebp),%edx
  102c05:	89 d0                	mov    %edx,%eax
  102c07:	01 c0                	add    %eax,%eax
  102c09:	01 d0                	add    %edx,%eax
  102c0b:	8d 14 85 00 00 00 00 	lea    0x0(,%eax,4),%edx
  102c12:	01 d0                	add    %edx,%eax
  102c14:	c1 e0 03             	shl    $0x3,%eax
  102c17:	05 c4 dc 11 00       	add    $0x11dcc4,%eax
  102c1c:	8b 00                	mov    (%eax),%eax
  102c1e:	89 45 ec             	mov    %eax,-0x14(%ebp)
  102c21:	6a 03                	push   $0x3
  102c23:	6a 00                	push   $0x0
  102c25:	68 00 00 00 80       	push   $0x80000000
  102c2a:	ff 75 ec             	pushl  -0x14(%ebp)
  102c2d:	e8 e1 f4 ff ff       	call   102113 <set_mmap>
  102c32:	83 c4 10             	add    $0x10,%esp
  102c35:	83 ec 04             	sub    $0x4,%esp
  102c38:	ff 75 f4             	pushl  -0xc(%ebp)
  102c3b:	68 00 00 00 80       	push   $0x80000000
  102c40:	ff 75 ec             	pushl  -0x14(%ebp)
  102c43:	e8 b2 fb ff ff       	call   1027fa <swap_sector_set>
  102c48:	83 c4 10             	add    $0x10,%esp
  102c4b:	83 ec 04             	sub    $0x4,%esp
  102c4e:	6a 03                	push   $0x3
  102c50:	68 fc ef ff ff       	push   $0xffffeffc
  102c55:	ff 75 ec             	pushl  -0x14(%ebp)
  102c58:	e8 6a f5 ff ff       	call   1021c7 <load_memory>
  102c5d:	83 c4 10             	add    $0x10,%esp
  102c60:	90                   	nop
  102c61:	c9                   	leave  
  102c62:	c3                   	ret    

00102c63 <inb>:
  102c63:	55                   	push   %ebp
  102c64:	89 e5                	mov    %esp,%ebp
  102c66:	83 ec 14             	sub    $0x14,%esp
  102c69:	8b 45 08             	mov    0x8(%ebp),%eax
  102c6c:	66 89 45 ec          	mov    %ax,-0x14(%ebp)
  102c70:	8b 45 ec             	mov    -0x14(%ebp),%eax
  102c73:	89 c2                	mov    %eax,%edx
  102c75:	ec                   	in     (%dx),%al
  102c76:	88 45 ff             	mov    %al,-0x1(%ebp)
  102c79:	8a 45 ff             	mov    -0x1(%ebp),%al
  102c7c:	c9                   	leave  
  102c7d:	c3                   	ret    

00102c7e <inw>:
  102c7e:	55                   	push   %ebp
  102c7f:	89 e5                	mov    %esp,%ebp
  102c81:	83 ec 14             	sub    $0x14,%esp
  102c84:	8b 45 08             	mov    0x8(%ebp),%eax
  102c87:	66 89 45 ec          	mov    %ax,-0x14(%ebp)
  102c8b:	8b 45 ec             	mov    -0x14(%ebp),%eax
  102c8e:	89 c2                	mov    %eax,%edx
  102c90:	66 ed                	in     (%dx),%ax
  102c92:	66 89 45 fe          	mov    %ax,-0x2(%ebp)
  102c96:	66 8b 45 fe          	mov    -0x2(%ebp),%ax
  102c9a:	c9                   	leave  
  102c9b:	c3                   	ret    

00102c9c <outb>:
  102c9c:	55                   	push   %ebp
  102c9d:	89 e5                	mov    %esp,%ebp
  102c9f:	83 ec 08             	sub    $0x8,%esp
  102ca2:	8b 45 08             	mov    0x8(%ebp),%eax
  102ca5:	8b 55 0c             	mov    0xc(%ebp),%edx
  102ca8:	66 89 45 fc          	mov    %ax,-0x4(%ebp)
  102cac:	88 d0                	mov    %dl,%al
  102cae:	88 45 f8             	mov    %al,-0x8(%ebp)
  102cb1:	8b 55 fc             	mov    -0x4(%ebp),%edx
  102cb4:	8a 45 f8             	mov    -0x8(%ebp),%al
  102cb7:	ee                   	out    %al,(%dx)
  102cb8:	90                   	nop
  102cb9:	c9                   	leave  
  102cba:	c3                   	ret    

00102cbb <outw>:
  102cbb:	55                   	push   %ebp
  102cbc:	89 e5                	mov    %esp,%ebp
  102cbe:	83 ec 08             	sub    $0x8,%esp
  102cc1:	8b 55 08             	mov    0x8(%ebp),%edx
  102cc4:	8b 45 0c             	mov    0xc(%ebp),%eax
  102cc7:	66 89 55 fc          	mov    %dx,-0x4(%ebp)
  102ccb:	66 89 45 f8          	mov    %ax,-0x8(%ebp)
  102ccf:	8b 55 fc             	mov    -0x4(%ebp),%edx
  102cd2:	8b 45 f8             	mov    -0x8(%ebp),%eax
  102cd5:	66 ef                	out    %ax,(%dx)
  102cd7:	90                   	nop
  102cd8:	c9                   	leave  
  102cd9:	c3                   	ret    

00102cda <read_disk>:
  102cda:	55                   	push   %ebp
  102cdb:	89 e5                	mov    %esp,%ebp
  102cdd:	53                   	push   %ebx
  102cde:	83 ec 10             	sub    $0x10,%esp
  102ce1:	68 e0 00 00 00       	push   $0xe0
  102ce6:	68 f6 01 00 00       	push   $0x1f6
  102ceb:	e8 ac ff ff ff       	call   102c9c <outb>
  102cf0:	83 c4 08             	add    $0x8,%esp
  102cf3:	8b 45 0c             	mov    0xc(%ebp),%eax
  102cf6:	c1 e8 08             	shr    $0x8,%eax
  102cf9:	0f b6 c0             	movzbl %al,%eax
  102cfc:	50                   	push   %eax
  102cfd:	68 f2 01 00 00       	push   $0x1f2
  102d02:	e8 95 ff ff ff       	call   102c9c <outb>
  102d07:	83 c4 08             	add    $0x8,%esp
  102d0a:	8b 45 08             	mov    0x8(%ebp),%eax
  102d0d:	c1 e8 18             	shr    $0x18,%eax
  102d10:	0f b6 c0             	movzbl %al,%eax
  102d13:	50                   	push   %eax
  102d14:	68 f3 01 00 00       	push   $0x1f3
  102d19:	e8 7e ff ff ff       	call   102c9c <outb>
  102d1e:	83 c4 08             	add    $0x8,%esp
  102d21:	6a 00                	push   $0x0
  102d23:	68 f4 01 00 00       	push   $0x1f4
  102d28:	e8 6f ff ff ff       	call   102c9c <outb>
  102d2d:	83 c4 08             	add    $0x8,%esp
  102d30:	6a 00                	push   $0x0
  102d32:	68 f5 01 00 00       	push   $0x1f5
  102d37:	e8 60 ff ff ff       	call   102c9c <outb>
  102d3c:	83 c4 08             	add    $0x8,%esp
  102d3f:	8b 45 0c             	mov    0xc(%ebp),%eax
  102d42:	0f b6 c0             	movzbl %al,%eax
  102d45:	50                   	push   %eax
  102d46:	68 f2 01 00 00       	push   $0x1f2
  102d4b:	e8 4c ff ff ff       	call   102c9c <outb>
  102d50:	83 c4 08             	add    $0x8,%esp
  102d53:	8b 45 08             	mov    0x8(%ebp),%eax
  102d56:	0f b6 c0             	movzbl %al,%eax
  102d59:	50                   	push   %eax
  102d5a:	68 f3 01 00 00       	push   $0x1f3
  102d5f:	e8 38 ff ff ff       	call   102c9c <outb>
  102d64:	83 c4 08             	add    $0x8,%esp
  102d67:	8b 45 08             	mov    0x8(%ebp),%eax
  102d6a:	c1 e8 08             	shr    $0x8,%eax
  102d6d:	0f b6 c0             	movzbl %al,%eax
  102d70:	50                   	push   %eax
  102d71:	68 f4 01 00 00       	push   $0x1f4
  102d76:	e8 21 ff ff ff       	call   102c9c <outb>
  102d7b:	83 c4 08             	add    $0x8,%esp
  102d7e:	8b 45 08             	mov    0x8(%ebp),%eax
  102d81:	c1 e8 10             	shr    $0x10,%eax
  102d84:	0f b6 c0             	movzbl %al,%eax
  102d87:	50                   	push   %eax
  102d88:	68 f5 01 00 00       	push   $0x1f5
  102d8d:	e8 0a ff ff ff       	call   102c9c <outb>
  102d92:	83 c4 08             	add    $0x8,%esp
  102d95:	6a 24                	push   $0x24
  102d97:	68 f7 01 00 00       	push   $0x1f7
  102d9c:	e8 fb fe ff ff       	call   102c9c <outb>
  102da1:	83 c4 08             	add    $0x8,%esp
  102da4:	8b 45 10             	mov    0x10(%ebp),%eax
  102da7:	89 45 f8             	mov    %eax,-0x8(%ebp)
  102daa:	eb 49                	jmp    102df5 <read_disk+0x11b>
  102dac:	90                   	nop
  102dad:	68 f7 01 00 00       	push   $0x1f7
  102db2:	e8 ac fe ff ff       	call   102c63 <inb>
  102db7:	83 c4 04             	add    $0x4,%esp
  102dba:	0f b6 c0             	movzbl %al,%eax
  102dbd:	25 88 00 00 00       	and    $0x88,%eax
  102dc2:	83 f8 08             	cmp    $0x8,%eax
  102dc5:	75 e6                	jne    102dad <read_disk+0xd3>
  102dc7:	c7 45 f4 00 00 00 00 	movl   $0x0,-0xc(%ebp)
  102dce:	eb 1c                	jmp    102dec <read_disk+0x112>
  102dd0:	8b 5d f8             	mov    -0x8(%ebp),%ebx
  102dd3:	8d 43 02             	lea    0x2(%ebx),%eax
  102dd6:	89 45 f8             	mov    %eax,-0x8(%ebp)
  102dd9:	68 f0 01 00 00       	push   $0x1f0
  102dde:	e8 9b fe ff ff       	call   102c7e <inw>
  102de3:	83 c4 04             	add    $0x4,%esp
  102de6:	66 89 03             	mov    %ax,(%ebx)
  102de9:	ff 45 f4             	incl   -0xc(%ebp)
  102dec:	81 7d f4 ff 00 00 00 	cmpl   $0xff,-0xc(%ebp)
  102df3:	7e db                	jle    102dd0 <read_disk+0xf6>
  102df5:	8b 45 0c             	mov    0xc(%ebp),%eax
  102df8:	8d 50 ff             	lea    -0x1(%eax),%edx
  102dfb:	89 55 0c             	mov    %edx,0xc(%ebp)
  102dfe:	85 c0                	test   %eax,%eax
  102e00:	75 aa                	jne    102dac <read_disk+0xd2>
  102e02:	90                   	nop
  102e03:	8b 5d fc             	mov    -0x4(%ebp),%ebx
  102e06:	c9                   	leave  
  102e07:	c3                   	ret    

00102e08 <write_disk>:
  102e08:	55                   	push   %ebp
  102e09:	89 e5                	mov    %esp,%ebp
  102e0b:	83 ec 10             	sub    $0x10,%esp
  102e0e:	68 e0 00 00 00       	push   $0xe0
  102e13:	68 f6 01 00 00       	push   $0x1f6
  102e18:	e8 7f fe ff ff       	call   102c9c <outb>
  102e1d:	83 c4 08             	add    $0x8,%esp
  102e20:	8b 45 0c             	mov    0xc(%ebp),%eax
  102e23:	c1 e8 08             	shr    $0x8,%eax
  102e26:	0f b6 c0             	movzbl %al,%eax
  102e29:	50                   	push   %eax
  102e2a:	68 f2 01 00 00       	push   $0x1f2
  102e2f:	e8 68 fe ff ff       	call   102c9c <outb>
  102e34:	83 c4 08             	add    $0x8,%esp
  102e37:	8b 45 08             	mov    0x8(%ebp),%eax
  102e3a:	c1 e8 18             	shr    $0x18,%eax
  102e3d:	0f b6 c0             	movzbl %al,%eax
  102e40:	50                   	push   %eax
  102e41:	68 f3 01 00 00       	push   $0x1f3
  102e46:	e8 51 fe ff ff       	call   102c9c <outb>
  102e4b:	83 c4 08             	add    $0x8,%esp
  102e4e:	6a 00                	push   $0x0
  102e50:	68 f4 01 00 00       	push   $0x1f4
  102e55:	e8 42 fe ff ff       	call   102c9c <outb>
  102e5a:	83 c4 08             	add    $0x8,%esp
  102e5d:	6a 00                	push   $0x0
  102e5f:	68 f5 01 00 00       	push   $0x1f5
  102e64:	e8 33 fe ff ff       	call   102c9c <outb>
  102e69:	83 c4 08             	add    $0x8,%esp
  102e6c:	8b 45 0c             	mov    0xc(%ebp),%eax
  102e6f:	0f b6 c0             	movzbl %al,%eax
  102e72:	50                   	push   %eax
  102e73:	68 f2 01 00 00       	push   $0x1f2
  102e78:	e8 1f fe ff ff       	call   102c9c <outb>
  102e7d:	83 c4 08             	add    $0x8,%esp
  102e80:	8b 45 08             	mov    0x8(%ebp),%eax
  102e83:	0f b6 c0             	movzbl %al,%eax
  102e86:	50                   	push   %eax
  102e87:	68 f3 01 00 00       	push   $0x1f3
  102e8c:	e8 0b fe ff ff       	call   102c9c <outb>
  102e91:	83 c4 08             	add    $0x8,%esp
  102e94:	8b 45 08             	mov    0x8(%ebp),%eax
  102e97:	c1 e8 08             	shr    $0x8,%eax
  102e9a:	0f b6 c0             	movzbl %al,%eax
  102e9d:	50                   	push   %eax
  102e9e:	68 f4 01 00 00       	push   $0x1f4
  102ea3:	e8 f4 fd ff ff       	call   102c9c <outb>
  102ea8:	83 c4 08             	add    $0x8,%esp
  102eab:	8b 45 08             	mov    0x8(%ebp),%eax
  102eae:	c1 e8 10             	shr    $0x10,%eax
  102eb1:	0f b6 c0             	movzbl %al,%eax
  102eb4:	50                   	push   %eax
  102eb5:	68 f5 01 00 00       	push   $0x1f5
  102eba:	e8 dd fd ff ff       	call   102c9c <outb>
  102ebf:	83 c4 08             	add    $0x8,%esp
  102ec2:	6a 34                	push   $0x34
  102ec4:	68 f7 01 00 00       	push   $0x1f7
  102ec9:	e8 ce fd ff ff       	call   102c9c <outb>
  102ece:	83 c4 08             	add    $0x8,%esp
  102ed1:	8b 45 10             	mov    0x10(%ebp),%eax
  102ed4:	89 45 fc             	mov    %eax,-0x4(%ebp)
  102ed7:	eb 4d                	jmp    102f26 <write_disk+0x11e>
  102ed9:	90                   	nop
  102eda:	68 f7 01 00 00       	push   $0x1f7
  102edf:	e8 7f fd ff ff       	call   102c63 <inb>
  102ee4:	83 c4 04             	add    $0x4,%esp
  102ee7:	0f b6 c0             	movzbl %al,%eax
  102eea:	25 88 00 00 00       	and    $0x88,%eax
  102eef:	83 f8 08             	cmp    $0x8,%eax
  102ef2:	75 e6                	jne    102eda <write_disk+0xd2>
  102ef4:	c7 45 f8 00 00 00 00 	movl   $0x0,-0x8(%ebp)
  102efb:	eb 20                	jmp    102f1d <write_disk+0x115>
  102efd:	8b 45 fc             	mov    -0x4(%ebp),%eax
  102f00:	8d 50 02             	lea    0x2(%eax),%edx
  102f03:	89 55 fc             	mov    %edx,-0x4(%ebp)
  102f06:	66 8b 00             	mov    (%eax),%ax
  102f09:	0f b7 c0             	movzwl %ax,%eax
  102f0c:	50                   	push   %eax
  102f0d:	68 f0 01 00 00       	push   $0x1f0
  102f12:	e8 a4 fd ff ff       	call   102cbb <outw>
  102f17:	83 c4 08             	add    $0x8,%esp
  102f1a:	ff 45 f8             	incl   -0x8(%ebp)
  102f1d:	81 7d f8 ff 00 00 00 	cmpl   $0xff,-0x8(%ebp)
  102f24:	7e d7                	jle    102efd <write_disk+0xf5>
  102f26:	8b 45 0c             	mov    0xc(%ebp),%eax
  102f29:	8d 50 ff             	lea    -0x1(%eax),%edx
  102f2c:	89 55 0c             	mov    %edx,0xc(%ebp)
  102f2f:	85 c0                	test   %eax,%eax
  102f31:	75 a6                	jne    102ed9 <write_disk+0xd1>
  102f33:	68 e7 00 00 00       	push   $0xe7
  102f38:	68 f7 01 00 00       	push   $0x1f7
  102f3d:	e8 5a fd ff ff       	call   102c9c <outb>
  102f42:	83 c4 08             	add    $0x8,%esp
  102f45:	90                   	nop
  102f46:	c9                   	leave  
  102f47:	c3                   	ret    

00102f48 <fs_init>:
  102f48:	55                   	push   %ebp
  102f49:	89 e5                	mov    %esp,%ebp
  102f4b:	83 ec 18             	sub    $0x18,%esp
  102f4e:	83 ec 04             	sub    $0x4,%esp
  102f51:	68 00 00 18 00       	push   $0x180000
  102f56:	68 40 d0 23 00       	push   $0x23d040
  102f5b:	68 20 d0 23 00       	push   $0x23d020
  102f60:	e8 d0 ed ff ff       	call   101d35 <bit_bind>
  102f65:	83 c4 10             	add    $0x10,%esp
  102f68:	c7 45 f4 00 00 00 00 	movl   $0x0,-0xc(%ebp)
  102f6f:	eb 18                	jmp    102f89 <fs_init+0x41>
  102f71:	83 ec 04             	sub    $0x4,%esp
  102f74:	6a 01                	push   $0x1
  102f76:	ff 75 f4             	pushl  -0xc(%ebp)
  102f79:	68 20 d0 23 00       	push   $0x23d020
  102f7e:	e8 78 ed ff ff       	call   101cfb <bit_free>
  102f83:	83 c4 10             	add    $0x10,%esp
  102f86:	ff 45 f4             	incl   -0xc(%ebp)
  102f89:	81 7d f4 ff 03 00 00 	cmpl   $0x3ff,-0xc(%ebp)
  102f90:	7e df                	jle    102f71 <fs_init+0x29>
  102f92:	e8 5a 00 00 00       	call   102ff1 <root_init>
  102f97:	90                   	nop
  102f98:	c9                   	leave  
  102f99:	c3                   	ret    

00102f9a <load_alloc_table>:
  102f9a:	55                   	push   %ebp
  102f9b:	89 e5                	mov    %esp,%ebp
  102f9d:	a1 20 d0 23 00       	mov    0x23d020,%eax
  102fa2:	50                   	push   %eax
  102fa3:	68 80 01 00 00       	push   $0x180
  102fa8:	68 80 02 00 00       	push   $0x280
  102fad:	e8 28 fd ff ff       	call   102cda <read_disk>
  102fb2:	83 c4 0c             	add    $0xc,%esp
  102fb5:	90                   	nop
  102fb6:	c9                   	leave  
  102fb7:	c3                   	ret    

00102fb8 <save_alloc_table>:
  102fb8:	55                   	push   %ebp
  102fb9:	89 e5                	mov    %esp,%ebp
  102fbb:	a1 20 d0 23 00       	mov    0x23d020,%eax
  102fc0:	50                   	push   %eax
  102fc1:	68 80 01 00 00       	push   $0x180
  102fc6:	68 80 02 00 00       	push   $0x280
  102fcb:	e8 38 fe ff ff       	call   102e08 <write_disk>
  102fd0:	83 c4 0c             	add    $0xc,%esp
  102fd3:	90                   	nop
  102fd4:	c9                   	leave  
  102fd5:	c3                   	ret    

00102fd6 <file_alloc>:
  102fd6:	55                   	push   %ebp
  102fd7:	89 e5                	mov    %esp,%ebp
  102fd9:	83 ec 08             	sub    $0x8,%esp
  102fdc:	83 ec 08             	sub    $0x8,%esp
  102fdf:	6a 00                	push   $0x0
  102fe1:	68 20 d0 23 00       	push   $0x23d020
  102fe6:	e8 28 ec ff ff       	call   101c13 <bit_alloc>
  102feb:	83 c4 10             	add    $0x10,%esp
  102fee:	90                   	nop
  102fef:	c9                   	leave  
  102ff0:	c3                   	ret    

00102ff1 <root_init>:
  102ff1:	55                   	push   %ebp
  102ff2:	89 e5                	mov    %esp,%ebp
  102ff4:	81 ec 18 02 00 00    	sub    $0x218,%esp
  102ffa:	c7 45 f0 ff ff ff ff 	movl   $0xffffffff,-0x10(%ebp)
  103001:	8d 85 f4 fd ff ff    	lea    -0x20c(%ebp),%eax
  103007:	89 45 f4             	mov    %eax,-0xc(%ebp)
  10300a:	8b 45 f4             	mov    -0xc(%ebp),%eax
  10300d:	83 ec 08             	sub    $0x8,%esp
  103010:	68 4c 43 10 00       	push   $0x10434c
  103015:	50                   	push   %eax
  103016:	e8 52 e6 ff ff       	call   10166d <strcpy>
  10301b:	83 c4 10             	add    $0x10,%esp
  10301e:	8b 45 f4             	mov    -0xc(%ebp),%eax
  103021:	c7 40 50 01 00 00 00 	movl   $0x1,0x50(%eax)
  103028:	8b 45 f4             	mov    -0xc(%ebp),%eax
  10302b:	c7 40 44 01 04 00 00 	movl   $0x401,0x44(%eax)
  103032:	8b 45 f4             	mov    -0xc(%ebp),%eax
  103035:	8b 50 44             	mov    0x44(%eax),%edx
  103038:	8b 45 f4             	mov    -0xc(%ebp),%eax
  10303b:	89 50 40             	mov    %edx,0x40(%eax)
  10303e:	8b 45 f4             	mov    -0xc(%ebp),%eax
  103041:	c7 40 48 01 00 00 00 	movl   $0x1,0x48(%eax)
  103048:	83 ec 04             	sub    $0x4,%esp
  10304b:	6a 01                	push   $0x1
  10304d:	68 00 04 00 00       	push   $0x400
  103052:	68 20 d0 23 00       	push   $0x23d020
  103057:	e8 9f ec ff ff       	call   101cfb <bit_free>
  10305c:	83 c4 10             	add    $0x10,%esp
  10305f:	83 ec 04             	sub    $0x4,%esp
  103062:	6a 01                	push   $0x1
  103064:	68 01 04 00 00       	push   $0x401
  103069:	68 20 d0 23 00       	push   $0x23d020
  10306e:	e8 88 ec ff ff       	call   101cfb <bit_free>
  103073:	83 c4 10             	add    $0x10,%esp
  103076:	8b 45 f4             	mov    -0xc(%ebp),%eax
  103079:	c7 40 4c 54 00 00 00 	movl   $0x54,0x4c(%eax)
  103080:	83 ec 04             	sub    $0x4,%esp
  103083:	8d 85 f4 fd ff ff    	lea    -0x20c(%ebp),%eax
  103089:	50                   	push   %eax
  10308a:	6a 01                	push   $0x1
  10308c:	68 00 04 00 00       	push   $0x400
  103091:	e8 72 fd ff ff       	call   102e08 <write_disk>
  103096:	83 c4 10             	add    $0x10,%esp
  103099:	90                   	nop
  10309a:	c9                   	leave  
  10309b:	c3                   	ret    

0010309c <dir_search_file>:
  10309c:	55                   	push   %ebp
  10309d:	89 e5                	mov    %esp,%ebp
  10309f:	57                   	push   %edi
  1030a0:	56                   	push   %esi
  1030a1:	53                   	push   %ebx
  1030a2:	81 ec 1c a8 00 00    	sub    $0xa81c,%esp
  1030a8:	83 ec 08             	sub    $0x8,%esp
  1030ab:	8d 85 e4 57 ff ff    	lea    -0xa81c(%ebp),%eax
  1030b1:	50                   	push   %eax
  1030b2:	ff 75 08             	pushl  0x8(%ebp)
  1030b5:	e8 ae 00 00 00       	call   103168 <read_all>
  1030ba:	83 c4 10             	add    $0x10,%esp
  1030bd:	c7 45 e4 00 00 00 00 	movl   $0x0,-0x1c(%ebp)
  1030c4:	eb 75                	jmp    10313b <dir_search_file+0x9f>
  1030c6:	8d 8d e4 57 ff ff    	lea    -0xa81c(%ebp),%ecx
  1030cc:	8b 55 e4             	mov    -0x1c(%ebp),%edx
  1030cf:	89 d0                	mov    %edx,%eax
  1030d1:	c1 e0 02             	shl    $0x2,%eax
  1030d4:	01 d0                	add    %edx,%eax
  1030d6:	c1 e0 02             	shl    $0x2,%eax
  1030d9:	01 d0                	add    %edx,%eax
  1030db:	c1 e0 02             	shl    $0x2,%eax
  1030de:	01 c8                	add    %ecx,%eax
  1030e0:	83 ec 08             	sub    $0x8,%esp
  1030e3:	ff 75 10             	pushl  0x10(%ebp)
  1030e6:	50                   	push   %eax
  1030e7:	e8 c0 e5 ff ff       	call   1016ac <strcmp>
  1030ec:	83 c4 10             	add    $0x10,%esp
  1030ef:	85 c0                	test   %eax,%eax
  1030f1:	75 45                	jne    103138 <dir_search_file+0x9c>
  1030f3:	8b 4d 0c             	mov    0xc(%ebp),%ecx
  1030f6:	8b 55 e4             	mov    -0x1c(%ebp),%edx
  1030f9:	89 d0                	mov    %edx,%eax
  1030fb:	c1 e0 02             	shl    $0x2,%eax
  1030fe:	01 d0                	add    %edx,%eax
  103100:	c1 e0 02             	shl    $0x2,%eax
  103103:	01 d0                	add    %edx,%eax
  103105:	c1 e0 02             	shl    $0x2,%eax
  103108:	8d 5d e8             	lea    -0x18(%ebp),%ebx
  10310b:	01 d8                	add    %ebx,%eax
  10310d:	2d 04 a8 00 00       	sub    $0xa804,%eax
  103112:	89 ca                	mov    %ecx,%edx
  103114:	89 c3                	mov    %eax,%ebx
  103116:	b8 15 00 00 00       	mov    $0x15,%eax
  10311b:	89 d7                	mov    %edx,%edi
  10311d:	89 de                	mov    %ebx,%esi
  10311f:	89 c1                	mov    %eax,%ecx
  103121:	f3 a5                	rep movsl %ds:(%esi),%es:(%edi)
  103123:	83 7d 14 00          	cmpl   $0x0,0x14(%ebp)
  103127:	74 08                	je     103131 <dir_search_file+0x95>
  103129:	8b 45 14             	mov    0x14(%ebp),%eax
  10312c:	8b 55 e4             	mov    -0x1c(%ebp),%edx
  10312f:	89 10                	mov    %edx,(%eax)
  103131:	b8 00 00 00 00       	mov    $0x0,%eax
  103136:	eb 28                	jmp    103160 <dir_search_file+0xc4>
  103138:	ff 45 e4             	incl   -0x1c(%ebp)
  10313b:	8b 45 08             	mov    0x8(%ebp),%eax
  10313e:	8b 40 4c             	mov    0x4c(%eax),%eax
  103141:	c1 e8 02             	shr    $0x2,%eax
  103144:	89 c2                	mov    %eax,%edx
  103146:	b8 31 0c c3 30       	mov    $0x30c30c31,%eax
  10314b:	f7 e2                	mul    %edx
  10314d:	c1 ea 02             	shr    $0x2,%edx
  103150:	8b 45 e4             	mov    -0x1c(%ebp),%eax
  103153:	39 c2                	cmp    %eax,%edx
  103155:	0f 87 6b ff ff ff    	ja     1030c6 <dir_search_file+0x2a>
  10315b:	b8 03 00 00 00       	mov    $0x3,%eax
  103160:	8d 65 f4             	lea    -0xc(%ebp),%esp
  103163:	5b                   	pop    %ebx
  103164:	5e                   	pop    %esi
  103165:	5f                   	pop    %edi
  103166:	5d                   	pop    %ebp
  103167:	c3                   	ret    

00103168 <read_all>:
  103168:	55                   	push   %ebp
  103169:	89 e5                	mov    %esp,%ebp
  10316b:	57                   	push   %edi
  10316c:	56                   	push   %esi
  10316d:	53                   	push   %ebx
  10316e:	81 ec 7c 02 00 00    	sub    $0x27c,%esp
  103174:	8b 55 08             	mov    0x8(%ebp),%edx
  103177:	8d 85 7c fd ff ff    	lea    -0x284(%ebp),%eax
  10317d:	89 d3                	mov    %edx,%ebx
  10317f:	ba 15 00 00 00       	mov    $0x15,%edx
  103184:	89 c7                	mov    %eax,%edi
  103186:	89 de                	mov    %ebx,%esi
  103188:	89 d1                	mov    %edx,%ecx
  10318a:	f3 a5                	rep movsl %ds:(%esi),%es:(%edi)
  10318c:	8b 45 08             	mov    0x8(%ebp),%eax
  10318f:	8b 40 40             	mov    0x40(%eax),%eax
  103192:	89 85 d8 fd ff ff    	mov    %eax,-0x228(%ebp)
  103198:	c7 85 d0 fd ff ff 00 	movl   $0x0,-0x230(%ebp)
  10319f:	00 00 00 
  1031a2:	8b 45 08             	mov    0x8(%ebp),%eax
  1031a5:	8b 40 4c             	mov    0x4c(%eax),%eax
  1031a8:	83 ec 04             	sub    $0x4,%esp
  1031ab:	50                   	push   %eax
  1031ac:	ff 75 0c             	pushl  0xc(%ebp)
  1031af:	8d 85 7c fd ff ff    	lea    -0x284(%ebp),%eax
  1031b5:	50                   	push   %eax
  1031b6:	e8 a5 02 00 00       	call   103460 <sys_read>
  1031bb:	83 c4 10             	add    $0x10,%esp
  1031be:	90                   	nop
  1031bf:	8d 65 f4             	lea    -0xc(%ebp),%esp
  1031c2:	5b                   	pop    %ebx
  1031c3:	5e                   	pop    %esi
  1031c4:	5f                   	pop    %edi
  1031c5:	5d                   	pop    %ebp
  1031c6:	c3                   	ret    

001031c7 <load_file_cached>:
  1031c7:	55                   	push   %ebp
  1031c8:	89 e5                	mov    %esp,%ebp
  1031ca:	81 ec 58 04 00 00    	sub    $0x458,%esp
  1031d0:	83 ec 0c             	sub    $0xc,%esp
  1031d3:	ff 75 08             	pushl  0x8(%ebp)
  1031d6:	e8 69 e4 ff ff       	call   101644 <strlen>
  1031db:	83 c4 10             	add    $0x10,%esp
  1031de:	89 45 ec             	mov    %eax,-0x14(%ebp)
  1031e1:	c7 45 f4 00 00 00 00 	movl   $0x0,-0xc(%ebp)
  1031e8:	83 ec 04             	sub    $0x4,%esp
  1031eb:	8d 85 ac fd ff ff    	lea    -0x254(%ebp),%eax
  1031f1:	50                   	push   %eax
  1031f2:	6a 01                	push   $0x1
  1031f4:	68 00 04 00 00       	push   $0x400
  1031f9:	e8 dc fa ff ff       	call   102cda <read_disk>
  1031fe:	83 c4 10             	add    $0x10,%esp
  103201:	8b 45 0c             	mov    0xc(%ebp),%eax
  103204:	83 ec 04             	sub    $0x4,%esp
  103207:	6a 54                	push   $0x54
  103209:	8d 95 ac fd ff ff    	lea    -0x254(%ebp),%edx
  10320f:	52                   	push   %edx
  103210:	50                   	push   %eax
  103211:	e8 0b e5 ff ff       	call   101721 <memcpy>
  103216:	83 c4 10             	add    $0x10,%esp
  103219:	c7 45 f0 00 00 00 00 	movl   $0x0,-0x10(%ebp)
  103220:	eb 7b                	jmp    10329d <load_file_cached+0xd6>
  103222:	8b 55 f0             	mov    -0x10(%ebp),%edx
  103225:	8b 45 08             	mov    0x8(%ebp),%eax
  103228:	01 d0                	add    %edx,%eax
  10322a:	8a 00                	mov    (%eax),%al
  10322c:	3c 2f                	cmp    $0x2f,%al
  10322e:	75 52                	jne    103282 <load_file_cached+0xbb>
  103230:	8d 55 ac             	lea    -0x54(%ebp),%edx
  103233:	8b 45 f4             	mov    -0xc(%ebp),%eax
  103236:	01 d0                	add    %edx,%eax
  103238:	c6 00 00             	movb   $0x0,(%eax)
  10323b:	c7 45 f4 00 00 00 00 	movl   $0x0,-0xc(%ebp)
  103242:	8b 45 0c             	mov    0xc(%ebp),%eax
  103245:	8d 88 64 02 00 00    	lea    0x264(%eax),%ecx
  10324b:	8b 55 0c             	mov    0xc(%ebp),%edx
  10324e:	8b 45 0c             	mov    0xc(%ebp),%eax
  103251:	51                   	push   %ecx
  103252:	8d 4d ac             	lea    -0x54(%ebp),%ecx
  103255:	51                   	push   %ecx
  103256:	52                   	push   %edx
  103257:	50                   	push   %eax
  103258:	e8 3f fe ff ff       	call   10309c <dir_search_file>
  10325d:	83 c4 10             	add    $0x10,%esp
  103260:	83 f8 03             	cmp    $0x3,%eax
  103263:	75 35                	jne    10329a <load_file_cached+0xd3>
  103265:	8b 45 ec             	mov    -0x14(%ebp),%eax
  103268:	48                   	dec    %eax
  103269:	39 45 f0             	cmp    %eax,-0x10(%ebp)
  10326c:	7c 0a                	jl     103278 <load_file_cached+0xb1>
  10326e:	b8 03 00 00 00       	mov    $0x3,%eax
  103273:	e9 c1 00 00 00       	jmp    103339 <load_file_cached+0x172>
  103278:	b8 04 00 00 00       	mov    $0x4,%eax
  10327d:	e9 b7 00 00 00       	jmp    103339 <load_file_cached+0x172>
  103282:	8b 55 f0             	mov    -0x10(%ebp),%edx
  103285:	8b 45 08             	mov    0x8(%ebp),%eax
  103288:	8d 0c 02             	lea    (%edx,%eax,1),%ecx
  10328b:	8b 45 f4             	mov    -0xc(%ebp),%eax
  10328e:	8d 50 01             	lea    0x1(%eax),%edx
  103291:	89 55 f4             	mov    %edx,-0xc(%ebp)
  103294:	8a 11                	mov    (%ecx),%dl
  103296:	88 54 05 ac          	mov    %dl,-0x54(%ebp,%eax,1)
  10329a:	ff 45 f0             	incl   -0x10(%ebp)
  10329d:	8b 45 f0             	mov    -0x10(%ebp),%eax
  1032a0:	3b 45 ec             	cmp    -0x14(%ebp),%eax
  1032a3:	0f 8c 79 ff ff ff    	jl     103222 <load_file_cached+0x5b>
  1032a9:	8b 45 0c             	mov    0xc(%ebp),%eax
  1032ac:	8b 40 40             	mov    0x40(%eax),%eax
  1032af:	89 c2                	mov    %eax,%edx
  1032b1:	8b 45 0c             	mov    0xc(%ebp),%eax
  1032b4:	89 50 60             	mov    %edx,0x60(%eax)
  1032b7:	8b 45 0c             	mov    0xc(%ebp),%eax
  1032ba:	8b 50 60             	mov    0x60(%eax),%edx
  1032bd:	8b 45 0c             	mov    0xc(%ebp),%eax
  1032c0:	89 50 5c             	mov    %edx,0x5c(%eax)
  1032c3:	8b 45 0c             	mov    0xc(%ebp),%eax
  1032c6:	c7 40 58 00 00 00 00 	movl   $0x0,0x58(%eax)
  1032cd:	8b 45 0c             	mov    0xc(%ebp),%eax
  1032d0:	8b 50 58             	mov    0x58(%eax),%edx
  1032d3:	8b 45 0c             	mov    0xc(%ebp),%eax
  1032d6:	89 50 54             	mov    %edx,0x54(%eax)
  1032d9:	83 ec 08             	sub    $0x8,%esp
  1032dc:	68 51 43 10 00       	push   $0x104351
  1032e1:	ff 75 08             	pushl  0x8(%ebp)
  1032e4:	e8 c3 e3 ff ff       	call   1016ac <strcmp>
  1032e9:	83 c4 10             	add    $0x10,%esp
  1032ec:	85 c0                	test   %eax,%eax
  1032ee:	75 0c                	jne    1032fc <load_file_cached+0x135>
  1032f0:	8b 45 0c             	mov    0xc(%ebp),%eax
  1032f3:	c6 80 68 02 00 00 00 	movb   $0x0,0x268(%eax)
  1032fa:	eb 38                	jmp    103334 <load_file_cached+0x16d>
  1032fc:	8b 45 0c             	mov    0xc(%ebp),%eax
  1032ff:	c6 80 68 02 00 00 01 	movb   $0x1,0x268(%eax)
  103306:	83 ec 08             	sub    $0x8,%esp
  103309:	8d 85 ac fb ff ff    	lea    -0x454(%ebp),%eax
  10330f:	50                   	push   %eax
  103310:	ff 75 08             	pushl  0x8(%ebp)
  103313:	e8 3a e4 ff ff       	call   101752 <get_parent_dir_name>
  103318:	83 c4 10             	add    $0x10,%esp
  10331b:	8b 45 0c             	mov    0xc(%ebp),%eax
  10331e:	8d 50 64             	lea    0x64(%eax),%edx
  103321:	83 ec 08             	sub    $0x8,%esp
  103324:	8d 85 ac fb ff ff    	lea    -0x454(%ebp),%eax
  10332a:	50                   	push   %eax
  10332b:	52                   	push   %edx
  10332c:	e8 3c e3 ff ff       	call   10166d <strcpy>
  103331:	83 c4 10             	add    $0x10,%esp
  103334:	b8 00 00 00 00       	mov    $0x0,%eax
  103339:	c9                   	leave  
  10333a:	c3                   	ret    

0010333b <store_file_cached>:
  10333b:	55                   	push   %ebp
  10333c:	89 e5                	mov    %esp,%ebp
  10333e:	81 ec 78 04 00 00    	sub    $0x478,%esp
  103344:	8b 45 08             	mov    0x8(%ebp),%eax
  103347:	8d 50 64             	lea    0x64(%eax),%edx
  10334a:	83 ec 08             	sub    $0x8,%esp
  10334d:	8d 85 8c fd ff ff    	lea    -0x274(%ebp),%eax
  103353:	50                   	push   %eax
  103354:	52                   	push   %edx
  103355:	e8 6d fe ff ff       	call   1031c7 <load_file_cached>
  10335a:	83 c4 10             	add    $0x10,%esp
  10335d:	85 c0                	test   %eax,%eax
  10335f:	0f 85 85 00 00 00    	jne    1033ea <store_file_cached+0xaf>
  103365:	8b 45 08             	mov    0x8(%ebp),%eax
  103368:	8a 80 68 02 00 00    	mov    0x268(%eax),%al
  10336e:	84 c0                	test   %al,%al
  103370:	74 47                	je     1033b9 <store_file_cached+0x7e>
  103372:	8b 45 08             	mov    0x8(%ebp),%eax
  103375:	8b 80 64 02 00 00    	mov    0x264(%eax),%eax
  10337b:	89 c2                	mov    %eax,%edx
  10337d:	89 d0                	mov    %edx,%eax
  10337f:	c1 e0 02             	shl    $0x2,%eax
  103382:	01 d0                	add    %edx,%eax
  103384:	c1 e0 02             	shl    $0x2,%eax
  103387:	01 d0                	add    %edx,%eax
  103389:	c1 e0 02             	shl    $0x2,%eax
  10338c:	83 ec 08             	sub    $0x8,%esp
  10338f:	50                   	push   %eax
  103390:	8d 85 8c fd ff ff    	lea    -0x274(%ebp),%eax
  103396:	50                   	push   %eax
  103397:	e8 a4 06 00 00       	call   103a40 <sys_wseek>
  10339c:	83 c4 10             	add    $0x10,%esp
  10339f:	8b 45 08             	mov    0x8(%ebp),%eax
  1033a2:	83 ec 04             	sub    $0x4,%esp
  1033a5:	6a 54                	push   $0x54
  1033a7:	50                   	push   %eax
  1033a8:	8d 85 8c fd ff ff    	lea    -0x274(%ebp),%eax
  1033ae:	50                   	push   %eax
  1033af:	e8 d7 02 00 00       	call   10368b <covering_write>
  1033b4:	83 c4 10             	add    $0x10,%esp
  1033b7:	eb 31                	jmp    1033ea <store_file_cached+0xaf>
  1033b9:	8b 45 08             	mov    0x8(%ebp),%eax
  1033bc:	83 ec 04             	sub    $0x4,%esp
  1033bf:	6a 54                	push   $0x54
  1033c1:	50                   	push   %eax
  1033c2:	8d 85 8c fb ff ff    	lea    -0x474(%ebp),%eax
  1033c8:	50                   	push   %eax
  1033c9:	e8 53 e3 ff ff       	call   101721 <memcpy>
  1033ce:	83 c4 10             	add    $0x10,%esp
  1033d1:	83 ec 04             	sub    $0x4,%esp
  1033d4:	8d 85 8c fb ff ff    	lea    -0x474(%ebp),%eax
  1033da:	50                   	push   %eax
  1033db:	6a 01                	push   $0x1
  1033dd:	68 00 04 00 00       	push   $0x400
  1033e2:	e8 21 fa ff ff       	call   102e08 <write_disk>
  1033e7:	83 c4 10             	add    $0x10,%esp
  1033ea:	90                   	nop
  1033eb:	c9                   	leave  
  1033ec:	c3                   	ret    

001033ed <sys_create>:
  1033ed:	55                   	push   %ebp
  1033ee:	89 e5                	mov    %esp,%ebp
  1033f0:	81 ec 68 02 00 00    	sub    $0x268,%esp
  1033f6:	83 ec 08             	sub    $0x8,%esp
  1033f9:	ff 75 0c             	pushl  0xc(%ebp)
  1033fc:	8d 45 a4             	lea    -0x5c(%ebp),%eax
  1033ff:	50                   	push   %eax
  103400:	e8 68 e2 ff ff       	call   10166d <strcpy>
  103405:	83 c4 10             	add    $0x10,%esp
  103408:	c7 45 f0 00 00 00 00 	movl   $0x0,-0x10(%ebp)
  10340f:	8b 45 10             	mov    0x10(%ebp),%eax
  103412:	89 45 f4             	mov    %eax,-0xc(%ebp)
  103415:	e8 bc fb ff ff       	call   102fd6 <file_alloc>
  10341a:	89 45 e8             	mov    %eax,-0x18(%ebp)
  10341d:	8b 45 e8             	mov    -0x18(%ebp),%eax
  103420:	89 45 e4             	mov    %eax,-0x1c(%ebp)
  103423:	c7 45 a0 ff ff ff 0f 	movl   $0xfffffff,-0x60(%ebp)
  10342a:	8b 45 e4             	mov    -0x1c(%ebp),%eax
  10342d:	83 ec 04             	sub    $0x4,%esp
  103430:	8d 95 a4 fd ff ff    	lea    -0x25c(%ebp),%edx
  103436:	52                   	push   %edx
  103437:	6a 01                	push   $0x1
  103439:	50                   	push   %eax
  10343a:	e8 c9 f9 ff ff       	call   102e08 <write_disk>
  10343f:	83 c4 10             	add    $0x10,%esp
  103442:	c7 45 ec 01 00 00 00 	movl   $0x1,-0x14(%ebp)
  103449:	83 ec 04             	sub    $0x4,%esp
  10344c:	6a 54                	push   $0x54
  10344e:	8d 45 a4             	lea    -0x5c(%ebp),%eax
  103451:	50                   	push   %eax
  103452:	ff 75 08             	pushl  0x8(%ebp)
  103455:	e8 57 06 00 00       	call   103ab1 <sys_write>
  10345a:	83 c4 10             	add    $0x10,%esp
  10345d:	90                   	nop
  10345e:	c9                   	leave  
  10345f:	c3                   	ret    

00103460 <sys_read>:
  103460:	55                   	push   %ebp
  103461:	89 e5                	mov    %esp,%ebp
  103463:	53                   	push   %ebx
  103464:	81 ec 14 02 00 00    	sub    $0x214,%esp
  10346a:	8b 45 08             	mov    0x8(%ebp),%eax
  10346d:	8b 50 54             	mov    0x54(%eax),%edx
  103470:	8b 45 10             	mov    0x10(%ebp),%eax
  103473:	01 c2                	add    %eax,%edx
  103475:	8b 45 08             	mov    0x8(%ebp),%eax
  103478:	8b 40 4c             	mov    0x4c(%eax),%eax
  10347b:	39 c2                	cmp    %eax,%edx
  10347d:	0f 8f fe 01 00 00    	jg     103681 <sys_read+0x221>
  103483:	8b 45 08             	mov    0x8(%ebp),%eax
  103486:	8b 40 5c             	mov    0x5c(%eax),%eax
  103489:	89 c2                	mov    %eax,%edx
  10348b:	8d 85 e8 fd ff ff    	lea    -0x218(%ebp),%eax
  103491:	50                   	push   %eax
  103492:	6a 01                	push   $0x1
  103494:	52                   	push   %edx
  103495:	e8 40 f8 ff ff       	call   102cda <read_disk>
  10349a:	83 c4 0c             	add    $0xc,%esp
  10349d:	8b 45 08             	mov    0x8(%ebp),%eax
  1034a0:	8b 50 54             	mov    0x54(%eax),%edx
  1034a3:	8b 45 10             	mov    0x10(%ebp),%eax
  1034a6:	01 d0                	add    %edx,%eax
  1034a8:	c1 e8 02             	shr    $0x2,%eax
  1034ab:	89 c2                	mov    %eax,%edx
  1034ad:	b8 05 02 81 40       	mov    $0x40810205,%eax
  1034b2:	f7 e2                	mul    %edx
  1034b4:	89 d1                	mov    %edx,%ecx
  1034b6:	c1 e9 05             	shr    $0x5,%ecx
  1034b9:	8b 45 08             	mov    0x8(%ebp),%eax
  1034bc:	8b 40 54             	mov    0x54(%eax),%eax
  1034bf:	c1 e8 02             	shr    $0x2,%eax
  1034c2:	89 c2                	mov    %eax,%edx
  1034c4:	b8 05 02 81 40       	mov    $0x40810205,%eax
  1034c9:	f7 e2                	mul    %edx
  1034cb:	89 d0                	mov    %edx,%eax
  1034cd:	c1 e8 05             	shr    $0x5,%eax
  1034d0:	39 c1                	cmp    %eax,%ecx
  1034d2:	75 62                	jne    103536 <sys_read+0xd6>
  1034d4:	8b 4d 10             	mov    0x10(%ebp),%ecx
  1034d7:	8b 45 08             	mov    0x8(%ebp),%eax
  1034da:	8b 40 54             	mov    0x54(%eax),%eax
  1034dd:	89 c3                	mov    %eax,%ebx
  1034df:	89 da                	mov    %ebx,%edx
  1034e1:	c1 ea 02             	shr    $0x2,%edx
  1034e4:	b8 05 02 81 40       	mov    $0x40810205,%eax
  1034e9:	f7 e2                	mul    %edx
  1034eb:	c1 ea 05             	shr    $0x5,%edx
  1034ee:	89 d0                	mov    %edx,%eax
  1034f0:	c1 e0 07             	shl    $0x7,%eax
  1034f3:	29 d0                	sub    %edx,%eax
  1034f5:	c1 e0 02             	shl    $0x2,%eax
  1034f8:	29 c3                	sub    %eax,%ebx
  1034fa:	89 da                	mov    %ebx,%edx
  1034fc:	8d 85 e8 fd ff ff    	lea    -0x218(%ebp),%eax
  103502:	01 d0                	add    %edx,%eax
  103504:	83 ec 04             	sub    $0x4,%esp
  103507:	51                   	push   %ecx
  103508:	50                   	push   %eax
  103509:	ff 75 0c             	pushl  0xc(%ebp)
  10350c:	e8 10 e2 ff ff       	call   101721 <memcpy>
  103511:	83 c4 10             	add    $0x10,%esp
  103514:	8b 45 08             	mov    0x8(%ebp),%eax
  103517:	8b 50 54             	mov    0x54(%eax),%edx
  10351a:	8b 45 10             	mov    0x10(%ebp),%eax
  10351d:	01 c2                	add    %eax,%edx
  10351f:	8b 45 08             	mov    0x8(%ebp),%eax
  103522:	89 50 54             	mov    %edx,0x54(%eax)
  103525:	c7 45 10 00 00 00 00 	movl   $0x0,0x10(%ebp)
  10352c:	b8 00 00 00 00       	mov    $0x0,%eax
  103531:	e9 50 01 00 00       	jmp    103686 <sys_read+0x226>
  103536:	8b 45 08             	mov    0x8(%ebp),%eax
  103539:	8b 40 54             	mov    0x54(%eax),%eax
  10353c:	b9 fc 01 00 00       	mov    $0x1fc,%ecx
  103541:	ba 00 00 00 00       	mov    $0x0,%edx
  103546:	f7 f1                	div    %ecx
  103548:	89 d0                	mov    %edx,%eax
  10354a:	ba fc 01 00 00       	mov    $0x1fc,%edx
  10354f:	29 c2                	sub    %eax,%edx
  103551:	89 d0                	mov    %edx,%eax
  103553:	89 45 f0             	mov    %eax,-0x10(%ebp)
  103556:	8b 4d f0             	mov    -0x10(%ebp),%ecx
  103559:	8b 45 08             	mov    0x8(%ebp),%eax
  10355c:	8b 40 54             	mov    0x54(%eax),%eax
  10355f:	bb fc 01 00 00       	mov    $0x1fc,%ebx
  103564:	ba 00 00 00 00       	mov    $0x0,%edx
  103569:	f7 f3                	div    %ebx
  10356b:	8d 85 e8 fd ff ff    	lea    -0x218(%ebp),%eax
  103571:	01 d0                	add    %edx,%eax
  103573:	83 ec 04             	sub    $0x4,%esp
  103576:	51                   	push   %ecx
  103577:	50                   	push   %eax
  103578:	ff 75 0c             	pushl  0xc(%ebp)
  10357b:	e8 a1 e1 ff ff       	call   101721 <memcpy>
  103580:	83 c4 10             	add    $0x10,%esp
  103583:	8b 45 08             	mov    0x8(%ebp),%eax
  103586:	8b 50 54             	mov    0x54(%eax),%edx
  103589:	8b 45 f0             	mov    -0x10(%ebp),%eax
  10358c:	01 c2                	add    %eax,%edx
  10358e:	8b 45 08             	mov    0x8(%ebp),%eax
  103591:	89 50 54             	mov    %edx,0x54(%eax)
  103594:	8d 85 e8 fd ff ff    	lea    -0x218(%ebp),%eax
  10359a:	8b 80 fc 01 00 00    	mov    0x1fc(%eax),%eax
  1035a0:	89 c2                	mov    %eax,%edx
  1035a2:	8b 45 08             	mov    0x8(%ebp),%eax
  1035a5:	89 50 5c             	mov    %edx,0x5c(%eax)
  1035a8:	8b 45 f0             	mov    -0x10(%ebp),%eax
  1035ab:	29 45 10             	sub    %eax,0x10(%ebp)
  1035ae:	8b 45 f0             	mov    -0x10(%ebp),%eax
  1035b1:	01 45 0c             	add    %eax,0xc(%ebp)
  1035b4:	8b 45 10             	mov    0x10(%ebp),%eax
  1035b7:	c1 e8 02             	shr    $0x2,%eax
  1035ba:	89 c2                	mov    %eax,%edx
  1035bc:	b8 05 02 81 40       	mov    $0x40810205,%eax
  1035c1:	f7 e2                	mul    %edx
  1035c3:	89 d0                	mov    %edx,%eax
  1035c5:	c1 e8 05             	shr    $0x5,%eax
  1035c8:	89 45 ec             	mov    %eax,-0x14(%ebp)
  1035cb:	c7 45 f4 00 00 00 00 	movl   $0x0,-0xc(%ebp)
  1035d2:	eb 45                	jmp    103619 <sys_read+0x1b9>
  1035d4:	8b 45 08             	mov    0x8(%ebp),%eax
  1035d7:	8b 40 5c             	mov    0x5c(%eax),%eax
  1035da:	83 ec 04             	sub    $0x4,%esp
  1035dd:	ff 75 0c             	pushl  0xc(%ebp)
  1035e0:	6a 01                	push   $0x1
  1035e2:	50                   	push   %eax
  1035e3:	e8 f2 f6 ff ff       	call   102cda <read_disk>
  1035e8:	83 c4 10             	add    $0x10,%esp
  1035eb:	8b 45 0c             	mov    0xc(%ebp),%eax
  1035ee:	8b 80 fc 01 00 00    	mov    0x1fc(%eax),%eax
  1035f4:	89 c2                	mov    %eax,%edx
  1035f6:	8b 45 08             	mov    0x8(%ebp),%eax
  1035f9:	89 50 5c             	mov    %edx,0x5c(%eax)
  1035fc:	8b 45 08             	mov    0x8(%ebp),%eax
  1035ff:	8b 40 54             	mov    0x54(%eax),%eax
  103602:	05 fc 01 00 00       	add    $0x1fc,%eax
  103607:	89 c2                	mov    %eax,%edx
  103609:	8b 45 08             	mov    0x8(%ebp),%eax
  10360c:	89 50 54             	mov    %edx,0x54(%eax)
  10360f:	81 45 0c fc 01 00 00 	addl   $0x1fc,0xc(%ebp)
  103616:	ff 45 f4             	incl   -0xc(%ebp)
  103619:	8b 45 f4             	mov    -0xc(%ebp),%eax
  10361c:	3b 45 ec             	cmp    -0x14(%ebp),%eax
  10361f:	7c b3                	jl     1035d4 <sys_read+0x174>
  103621:	8b 4d 10             	mov    0x10(%ebp),%ecx
  103624:	89 ca                	mov    %ecx,%edx
  103626:	c1 ea 02             	shr    $0x2,%edx
  103629:	b8 05 02 81 40       	mov    $0x40810205,%eax
  10362e:	f7 e2                	mul    %edx
  103630:	c1 ea 05             	shr    $0x5,%edx
  103633:	89 d0                	mov    %edx,%eax
  103635:	c1 e0 07             	shl    $0x7,%eax
  103638:	29 d0                	sub    %edx,%eax
  10363a:	c1 e0 02             	shl    $0x2,%eax
  10363d:	29 c1                	sub    %eax,%ecx
  10363f:	89 ca                	mov    %ecx,%edx
  103641:	89 55 e8             	mov    %edx,-0x18(%ebp)
  103644:	8b 45 08             	mov    0x8(%ebp),%eax
  103647:	8b 40 5c             	mov    0x5c(%eax),%eax
  10364a:	89 c2                	mov    %eax,%edx
  10364c:	83 ec 04             	sub    $0x4,%esp
  10364f:	8d 85 e8 fd ff ff    	lea    -0x218(%ebp),%eax
  103655:	50                   	push   %eax
  103656:	6a 01                	push   $0x1
  103658:	52                   	push   %edx
  103659:	e8 7c f6 ff ff       	call   102cda <read_disk>
  10365e:	83 c4 10             	add    $0x10,%esp
  103661:	8b 45 e8             	mov    -0x18(%ebp),%eax
  103664:	83 ec 04             	sub    $0x4,%esp
  103667:	50                   	push   %eax
  103668:	8d 85 e8 fd ff ff    	lea    -0x218(%ebp),%eax
  10366e:	50                   	push   %eax
  10366f:	ff 75 0c             	pushl  0xc(%ebp)
  103672:	e8 aa e0 ff ff       	call   101721 <memcpy>
  103677:	83 c4 10             	add    $0x10,%esp
  10367a:	b8 00 00 00 00       	mov    $0x0,%eax
  10367f:	eb 05                	jmp    103686 <sys_read+0x226>
  103681:	b8 05 00 00 00       	mov    $0x5,%eax
  103686:	8b 5d fc             	mov    -0x4(%ebp),%ebx
  103689:	c9                   	leave  
  10368a:	c3                   	ret    

0010368b <covering_write>:
  10368b:	55                   	push   %ebp
  10368c:	89 e5                	mov    %esp,%ebp
  10368e:	53                   	push   %ebx
  10368f:	81 ec 14 02 00 00    	sub    $0x214,%esp
  103695:	8b 45 08             	mov    0x8(%ebp),%eax
  103698:	8b 40 60             	mov    0x60(%eax),%eax
  10369b:	89 c2                	mov    %eax,%edx
  10369d:	8d 85 e8 fd ff ff    	lea    -0x218(%ebp),%eax
  1036a3:	50                   	push   %eax
  1036a4:	6a 01                	push   $0x1
  1036a6:	52                   	push   %edx
  1036a7:	e8 2e f6 ff ff       	call   102cda <read_disk>
  1036ac:	83 c4 0c             	add    $0xc,%esp
  1036af:	8b 45 08             	mov    0x8(%ebp),%eax
  1036b2:	8b 50 58             	mov    0x58(%eax),%edx
  1036b5:	8b 45 10             	mov    0x10(%ebp),%eax
  1036b8:	01 d0                	add    %edx,%eax
  1036ba:	c1 e8 02             	shr    $0x2,%eax
  1036bd:	89 c2                	mov    %eax,%edx
  1036bf:	b8 05 02 81 40       	mov    $0x40810205,%eax
  1036c4:	f7 e2                	mul    %edx
  1036c6:	89 d1                	mov    %edx,%ecx
  1036c8:	c1 e9 05             	shr    $0x5,%ecx
  1036cb:	8b 45 08             	mov    0x8(%ebp),%eax
  1036ce:	8b 40 58             	mov    0x58(%eax),%eax
  1036d1:	c1 e8 02             	shr    $0x2,%eax
  1036d4:	89 c2                	mov    %eax,%edx
  1036d6:	b8 05 02 81 40       	mov    $0x40810205,%eax
  1036db:	f7 e2                	mul    %edx
  1036dd:	89 d0                	mov    %edx,%eax
  1036df:	c1 e8 05             	shr    $0x5,%eax
  1036e2:	39 c1                	cmp    %eax,%ecx
  1036e4:	75 73                	jne    103759 <covering_write+0xce>
  1036e6:	8b 4d 10             	mov    0x10(%ebp),%ecx
  1036e9:	8b 45 08             	mov    0x8(%ebp),%eax
  1036ec:	8b 40 58             	mov    0x58(%eax),%eax
  1036ef:	89 c3                	mov    %eax,%ebx
  1036f1:	89 da                	mov    %ebx,%edx
  1036f3:	c1 ea 02             	shr    $0x2,%edx
  1036f6:	b8 05 02 81 40       	mov    $0x40810205,%eax
  1036fb:	f7 e2                	mul    %edx
  1036fd:	c1 ea 05             	shr    $0x5,%edx
  103700:	89 d0                	mov    %edx,%eax
  103702:	c1 e0 07             	shl    $0x7,%eax
  103705:	29 d0                	sub    %edx,%eax
  103707:	c1 e0 02             	shl    $0x2,%eax
  10370a:	29 c3                	sub    %eax,%ebx
  10370c:	89 da                	mov    %ebx,%edx
  10370e:	8d 85 e8 fd ff ff    	lea    -0x218(%ebp),%eax
  103714:	01 d0                	add    %edx,%eax
  103716:	83 ec 04             	sub    $0x4,%esp
  103719:	51                   	push   %ecx
  10371a:	ff 75 0c             	pushl  0xc(%ebp)
  10371d:	50                   	push   %eax
  10371e:	e8 fe df ff ff       	call   101721 <memcpy>
  103723:	83 c4 10             	add    $0x10,%esp
  103726:	8b 45 08             	mov    0x8(%ebp),%eax
  103729:	8b 50 58             	mov    0x58(%eax),%edx
  10372c:	8b 45 10             	mov    0x10(%ebp),%eax
  10372f:	01 c2                	add    %eax,%edx
  103731:	8b 45 08             	mov    0x8(%ebp),%eax
  103734:	89 50 58             	mov    %edx,0x58(%eax)
  103737:	8b 45 08             	mov    0x8(%ebp),%eax
  10373a:	8b 40 60             	mov    0x60(%eax),%eax
  10373d:	89 c2                	mov    %eax,%edx
  10373f:	83 ec 04             	sub    $0x4,%esp
  103742:	8d 85 e8 fd ff ff    	lea    -0x218(%ebp),%eax
  103748:	50                   	push   %eax
  103749:	6a 01                	push   $0x1
  10374b:	52                   	push   %edx
  10374c:	e8 b7 f6 ff ff       	call   102e08 <write_disk>
  103751:	83 c4 10             	add    $0x10,%esp
  103754:	e9 8f 01 00 00       	jmp    1038e8 <covering_write+0x25d>
  103759:	8b 45 08             	mov    0x8(%ebp),%eax
  10375c:	8b 40 58             	mov    0x58(%eax),%eax
  10375f:	b9 fc 01 00 00       	mov    $0x1fc,%ecx
  103764:	ba 00 00 00 00       	mov    $0x0,%edx
  103769:	f7 f1                	div    %ecx
  10376b:	89 d0                	mov    %edx,%eax
  10376d:	ba fc 01 00 00       	mov    $0x1fc,%edx
  103772:	29 c2                	sub    %eax,%edx
  103774:	89 d0                	mov    %edx,%eax
  103776:	89 45 f0             	mov    %eax,-0x10(%ebp)
  103779:	8b 4d f0             	mov    -0x10(%ebp),%ecx
  10377c:	8b 45 08             	mov    0x8(%ebp),%eax
  10377f:	8b 40 58             	mov    0x58(%eax),%eax
  103782:	bb fc 01 00 00       	mov    $0x1fc,%ebx
  103787:	ba 00 00 00 00       	mov    $0x0,%edx
  10378c:	f7 f3                	div    %ebx
  10378e:	8d 85 e8 fd ff ff    	lea    -0x218(%ebp),%eax
  103794:	01 d0                	add    %edx,%eax
  103796:	83 ec 04             	sub    $0x4,%esp
  103799:	51                   	push   %ecx
  10379a:	ff 75 0c             	pushl  0xc(%ebp)
  10379d:	50                   	push   %eax
  10379e:	e8 7e df ff ff       	call   101721 <memcpy>
  1037a3:	83 c4 10             	add    $0x10,%esp
  1037a6:	8b 45 08             	mov    0x8(%ebp),%eax
  1037a9:	8b 40 60             	mov    0x60(%eax),%eax
  1037ac:	89 c2                	mov    %eax,%edx
  1037ae:	83 ec 04             	sub    $0x4,%esp
  1037b1:	8d 85 e8 fd ff ff    	lea    -0x218(%ebp),%eax
  1037b7:	50                   	push   %eax
  1037b8:	6a 01                	push   $0x1
  1037ba:	52                   	push   %edx
  1037bb:	e8 48 f6 ff ff       	call   102e08 <write_disk>
  1037c0:	83 c4 10             	add    $0x10,%esp
  1037c3:	8b 45 08             	mov    0x8(%ebp),%eax
  1037c6:	8b 50 58             	mov    0x58(%eax),%edx
  1037c9:	8b 45 f0             	mov    -0x10(%ebp),%eax
  1037cc:	01 c2                	add    %eax,%edx
  1037ce:	8b 45 08             	mov    0x8(%ebp),%eax
  1037d1:	89 50 58             	mov    %edx,0x58(%eax)
  1037d4:	8d 85 e8 fd ff ff    	lea    -0x218(%ebp),%eax
  1037da:	8b 80 fc 01 00 00    	mov    0x1fc(%eax),%eax
  1037e0:	89 c2                	mov    %eax,%edx
  1037e2:	8b 45 08             	mov    0x8(%ebp),%eax
  1037e5:	89 50 60             	mov    %edx,0x60(%eax)
  1037e8:	8b 45 f0             	mov    -0x10(%ebp),%eax
  1037eb:	29 45 10             	sub    %eax,0x10(%ebp)
  1037ee:	8b 45 f0             	mov    -0x10(%ebp),%eax
  1037f1:	01 45 0c             	add    %eax,0xc(%ebp)
  1037f4:	8b 45 10             	mov    0x10(%ebp),%eax
  1037f7:	c1 e8 02             	shr    $0x2,%eax
  1037fa:	89 c2                	mov    %eax,%edx
  1037fc:	b8 05 02 81 40       	mov    $0x40810205,%eax
  103801:	f7 e2                	mul    %edx
  103803:	89 d0                	mov    %edx,%eax
  103805:	c1 e8 05             	shr    $0x5,%eax
  103808:	89 45 ec             	mov    %eax,-0x14(%ebp)
  10380b:	c7 45 f4 00 00 00 00 	movl   $0x0,-0xc(%ebp)
  103812:	eb 45                	jmp    103859 <covering_write+0x1ce>
  103814:	8b 45 08             	mov    0x8(%ebp),%eax
  103817:	8b 40 60             	mov    0x60(%eax),%eax
  10381a:	83 ec 04             	sub    $0x4,%esp
  10381d:	ff 75 0c             	pushl  0xc(%ebp)
  103820:	6a 01                	push   $0x1
  103822:	50                   	push   %eax
  103823:	e8 e0 f5 ff ff       	call   102e08 <write_disk>
  103828:	83 c4 10             	add    $0x10,%esp
  10382b:	8b 45 0c             	mov    0xc(%ebp),%eax
  10382e:	8b 80 fc 01 00 00    	mov    0x1fc(%eax),%eax
  103834:	89 c2                	mov    %eax,%edx
  103836:	8b 45 08             	mov    0x8(%ebp),%eax
  103839:	89 50 60             	mov    %edx,0x60(%eax)
  10383c:	8b 45 08             	mov    0x8(%ebp),%eax
  10383f:	8b 40 58             	mov    0x58(%eax),%eax
  103842:	05 fc 01 00 00       	add    $0x1fc,%eax
  103847:	89 c2                	mov    %eax,%edx
  103849:	8b 45 08             	mov    0x8(%ebp),%eax
  10384c:	89 50 58             	mov    %edx,0x58(%eax)
  10384f:	81 45 0c fc 01 00 00 	addl   $0x1fc,0xc(%ebp)
  103856:	ff 45 f4             	incl   -0xc(%ebp)
  103859:	8b 45 f4             	mov    -0xc(%ebp),%eax
